---
triple:          'arm64-apple-darwin'
binary-path:     main
relocations:
  - { offsetInCU: 0x5C, offset: 0x5C, size: 0x8, addend: 0x0, symName: __ZNSt3__1L19piecewise_constructE, symObjAddr: 0x16CE3, symBinAddr: 0x10001AFD0, symSize: 0x0 }
  - { offsetInCU: 0x3ACF, offset: 0x3ACF, size: 0x8, addend: 0x0, symName: __ZNSt3__16chronomiB7v160006IxNS_5ratioILl1ELl1000000000EEExS3_EENS_11common_typeIJNS0_8durationIT_T0_EENS5_IT1_T2_EEEE4typeERKS8_RKSB_, symObjAddr: 0x5EFC, symBinAddr: 0x100009DDC, symSize: 0x70 }
  - { offsetInCU: 0x3F93, offset: 0x3F93, size: 0x8, addend: 0x0, symName: __ZNSt3__16chronomiB7v160006INS0_12steady_clockENS0_8durationIxNS_5ratioILl1ELl1000000000EEEEES6_EENS_11common_typeIJT0_T1_EE4typeERKNS0_10time_pointIT_S8_EERKNSC_ISD_S9_EE, symObjAddr: 0x2F24, symBinAddr: 0x100006E04, symSize: 0x58 }
  - { offsetInCU: 0x40DC, offset: 0x40DC, size: 0x8, addend: 0x0, symName: __ZNSt3__16chrono13duration_castB7v160006INS0_8durationIdNS_5ratioILl1ELl1EEEEExNS3_ILl1ELl1000000000EEEEENS_9enable_ifIXsr13__is_durationIT_EE5valueES8_E4typeERKNS2_IT0_T1_EE, symObjAddr: 0x6050, symBinAddr: 0x100009F30, symSize: 0x30 }
  - { offsetInCU: 0x48F6, offset: 0x48F6, size: 0x8, addend: 0x0, symName: __ZNSt3__17advanceB7v160006INS_15__list_iteratorINS_4pairI7TestKey9TestValueEEPvEEllvEEvRT_T0_, symObjAddr: 0x9550, symBinAddr: 0x10000D430, symSize: 0x50 }
  - { offsetInCU: 0x7064, offset: 0x7064, size: 0x8, addend: 0x0, symName: __ZNSt3__17advanceB7v160006INS_15__list_iteratorINS_4pairINS_12basic_stringIcNS_11char_traitsIcEENS_9allocatorIcEEEES8_EEPvEEllvEEvRT_T0_, symObjAddr: 0xDD18, symBinAddr: 0x100011BF8, symSize: 0x50 }
  - { offsetInCU: 0x96AA, offset: 0x96AA, size: 0x8, addend: 0x0, symName: __ZNSt3__17advanceB7v160006INS_15__list_iteratorINS_4pairIiNS_12basic_stringIcNS_11char_traitsIcEENS_9allocatorIcEEEEEEPvEEllvEEvRT_T0_, symObjAddr: 0x11550, symBinAddr: 0x100015430, symSize: 0x50 }
  - { offsetInCU: 0xBCC9, offset: 0xBCC9, size: 0x8, addend: 0x0, symName: __ZNSt3__17advanceB7v160006INS_15__list_iteratorINS_4pairINS_12basic_stringIcNS_11char_traitsIcEENS_9allocatorIcEEEEiEEPvEEllvEEvRT_T0_, symObjAddr: 0x143E4, symBinAddr: 0x1000182C4, symSize: 0x50 }
  - { offsetInCU: 0xF392, offset: 0xF392, size: 0x8, addend: 0x0, symName: __ZNSt3__1eqB7v160006INS_9allocatorIcEEEEbRKNS_12basic_stringIcNS_11char_traitsIcEET_EES9_, symObjAddr: 0x94, symBinAddr: 0x100003F74, symSize: 0x148 }
  - { offsetInCU: 0x13413, offset: 0x13413, size: 0x8, addend: 0x0, symName: __ZNSt3__1eqB7v160006IcNS_11char_traitsIcEENS_9allocatorIcEEEEbRKNS_12basic_stringIT_T0_T1_EEPKS6_, symObjAddr: 0x14CC, symBinAddr: 0x1000053AC, symSize: 0x5C }
  - { offsetInCU: 0x17459, offset: 0x17459, size: 0x8, addend: 0x0, symName: __ZNSt3__112__to_addressB7v160006IKcEEPT_S3_, symObjAddr: 0x31E8, symBinAddr: 0x1000070C8, symSize: 0x14 }
  - { offsetInCU: 0x174C1, offset: 0x174C1, size: 0x8, addend: 0x0, symName: __ZNSt3__118__constexpr_memcmpB7v160006IcEEiPKT_S3_m, symObjAddr: 0x32B4, symBinAddr: 0x100007194, symSize: 0x34 }
  - { offsetInCU: 0x17512, offset: 0x17512, size: 0x8, addend: 0x0, symName: __ZNSt3__119__debug_db_insert_cB7v160006INS_12basic_stringIcNS_11char_traitsIcEENS_9allocatorIcEEEEEEvPT_, symObjAddr: 0x33C4, symBinAddr: 0x1000072A4, symSize: 0x10 }
  - { offsetInCU: 0x17543, offset: 0x17543, size: 0x8, addend: 0x0, symName: __ZNSt3__118__constexpr_strlenB7v160006EPKc, symObjAddr: 0x3490, symBinAddr: 0x100007370, symSize: 0x24 }
  - { offsetInCU: 0x1756F, offset: 0x1756F, size: 0x8, addend: 0x0, symName: __ZNSt3__118__debug_db_erase_cB7v160006INS_10__list_impINS_4pairI7TestKey9TestValueEENS_9allocatorIS5_EEEEEEvPT_, symObjAddr: 0x36F0, symBinAddr: 0x1000075D0, symSize: 0x10 }
  - { offsetInCU: 0x175A0, offset: 0x175A0, size: 0x8, addend: 0x0, symName: __ZNSt3__125__debug_db_invalidate_allB7v160006INS_10__list_impINS_4pairI7TestKey9TestValueEENS_9allocatorIS5_EEEEEEvPT_, symObjAddr: 0x3884, symBinAddr: 0x100007764, symSize: 0x10 }
  - { offsetInCU: 0x17604, offset: 0x17604, size: 0x8, addend: 0x0, symName: __ZNSt3__110destroy_atB7v160006INS_4pairI7TestKey9TestValueEELi0EEEvPT_, symObjAddr: 0x39B0, symBinAddr: 0x100007890, symSize: 0x24 }
  - { offsetInCU: 0x1763B, offset: 0x1763B, size: 0x8, addend: 0x0, symName: __ZNSt3__112__destroy_atB7v160006INS_4pairI7TestKey9TestValueEELi0EEEvPT_, symObjAddr: 0x39D4, symBinAddr: 0x1000078B4, symSize: 0x24 }
  - { offsetInCU: 0x17672, offset: 0x17672, size: 0x8, addend: 0x0, symName: __ZNSt3__119__libcpp_deallocateB7v160006EPvmm, symObjAddr: 0x3A98, symBinAddr: 0x100007978, symSize: 0x60 }
  - { offsetInCU: 0x176D7, offset: 0x176D7, size: 0x8, addend: 0x0, symName: __ZNSt3__124__is_overaligned_for_newB7v160006Em, symObjAddr: 0x3AF8, symBinAddr: 0x1000079D8, symSize: 0x20 }
  - { offsetInCU: 0x17705, offset: 0x17705, size: 0x8, addend: 0x0, symName: __ZNSt3__127__do_deallocate_handle_sizeB7v160006IJSt11align_val_tEEEvPvmDpT_, symObjAddr: 0x3B18, symBinAddr: 0x1000079F8, symSize: 0x30 }
  - { offsetInCU: 0x17758, offset: 0x17758, size: 0x8, addend: 0x0, symName: __ZNSt3__127__do_deallocate_handle_sizeB7v160006IJEEEvPvmDpT_, symObjAddr: 0x3B48, symBinAddr: 0x100007A28, symSize: 0x28 }
  - { offsetInCU: 0x17796, offset: 0x17796, size: 0x8, addend: 0x0, symName: __ZNSt3__124__libcpp_operator_deleteB7v160006IJPvSt11align_val_tEEEvDpT_, symObjAddr: 0x3B70, symBinAddr: 0x100007A50, symSize: 0x2C }
  - { offsetInCU: 0x177DF, offset: 0x177DF, size: 0x8, addend: 0x0, symName: __ZNSt3__124__libcpp_operator_deleteB7v160006IJPvEEEvDpT_, symObjAddr: 0x3B9C, symBinAddr: 0x100007A7C, symSize: 0x24 }
  - { offsetInCU: 0x17814, offset: 0x17814, size: 0x8, addend: 0x0, symName: __ZNSt3__118__debug_db_erase_cB7v160006INS_12__hash_tableINS_17__hash_value_typeI7TestKeyNS_15__list_iteratorINS_4pairIS3_9TestValueEEPvEEEENS_22__unordered_map_hasherIS3_SA_NS_4hashIS3_EENS_8equal_toIS3_EELb1EEENS_21__unordered_map_equalIS3_SA_SF_SD_Lb1EEENS_9allocatorISA_EEEEEEvPT_, symObjAddr: 0x3D3C, symBinAddr: 0x100007C1C, symSize: 0x10 }
  - { offsetInCU: 0x17878, offset: 0x17878, size: 0x8, addend: 0x0, symName: __ZNSt3__110destroy_atB7v160006INS_4pairIK7TestKeyNS_15__list_iteratorINS1_IS2_9TestValueEEPvEEEELi0EEEvPT_, symObjAddr: 0x3E90, symBinAddr: 0x100007D70, symSize: 0x24 }
  - { offsetInCU: 0x178AF, offset: 0x178AF, size: 0x8, addend: 0x0, symName: __ZNSt3__112__destroy_atB7v160006INS_4pairIK7TestKeyNS_15__list_iteratorINS1_IS2_9TestValueEEPvEEEELi0EEEvPT_, symObjAddr: 0x3EB4, symBinAddr: 0x100007D94, symSize: 0x10 }
  - { offsetInCU: 0x178E6, offset: 0x178E6, size: 0x8, addend: 0x0, symName: __ZNSt3__17launderB7v160006INS_4pairIK7TestKeyNS_15__list_iteratorINS1_IS2_9TestValueEEPvEEEEEEPT_SB_, symObjAddr: 0x3EE8, symBinAddr: 0x100007DC8, symSize: 0x24 }
  - { offsetInCU: 0x1791D, offset: 0x1791D, size: 0x8, addend: 0x0, symName: __ZNSt3__19__launderB7v160006INS_4pairIK7TestKeyNS_15__list_iteratorINS1_IS2_9TestValueEEPvEEEEEEPT_SB_, symObjAddr: 0x3F0C, symBinAddr: 0x100007DEC, symSize: 0x14 }
  - { offsetInCU: 0x17954, offset: 0x17954, size: 0x8, addend: 0x0, symName: __ZNSt3__1eqB7v160006IcNS_11char_traitsIcEEEEbNS_17basic_string_viewIT_T0_EES6_, symObjAddr: 0x4310, symBinAddr: 0x1000081F0, symSize: 0xB0 }
  - { offsetInCU: 0x179A3, offset: 0x179A3, size: 0x8, addend: 0x0, symName: __ZNSt3__13minB7v160006ImEERKT_S3_S3_, symObjAddr: 0x4598, symBinAddr: 0x100008478, symSize: 0x2C }
  - { offsetInCU: 0x179E6, offset: 0x179E6, size: 0x8, addend: 0x0, symName: __ZNSt3__13minB7v160006ImNS_6__lessImmEEEERKT_S5_S5_T0_, symObjAddr: 0x45DC, symBinAddr: 0x1000084BC, symSize: 0x54 }
  - { offsetInCU: 0x17A7B, offset: 0x17A7B, size: 0x8, addend: 0x0, symName: __ZNSt3__128__char_traits_length_checkedB7v160006INS_11char_traitsIcEEEEmPKNT_9char_typeE, symObjAddr: 0x4734, symBinAddr: 0x100008614, symSize: 0x24 }
  - { offsetInCU: 0x17AB0, offset: 0x17AB0, size: 0x8, addend: 0x0, symName: __ZNSt3__118__debug_db_erase_cB7v160006INS_10__list_impINS_4pairINS_12basic_stringIcNS_11char_traitsIcEENS_9allocatorIcEEEES8_EENS6_IS9_EEEEEEvPT_, symObjAddr: 0x493C, symBinAddr: 0x10000881C, symSize: 0x10 }
  - { offsetInCU: 0x17AE1, offset: 0x17AE1, size: 0x8, addend: 0x0, symName: __ZNSt3__125__debug_db_invalidate_allB7v160006INS_10__list_impINS_4pairINS_12basic_stringIcNS_11char_traitsIcEENS_9allocatorIcEEEES8_EENS6_IS9_EEEEEEvPT_, symObjAddr: 0x4AD0, symBinAddr: 0x1000089B0, symSize: 0x10 }
  - { offsetInCU: 0x17B45, offset: 0x17B45, size: 0x8, addend: 0x0, symName: __ZNSt3__110destroy_atB7v160006INS_4pairINS_12basic_stringIcNS_11char_traitsIcEENS_9allocatorIcEEEES7_EELi0EEEvPT_, symObjAddr: 0x4BD4, symBinAddr: 0x100008AB4, symSize: 0x24 }
  - { offsetInCU: 0x17B7C, offset: 0x17B7C, size: 0x8, addend: 0x0, symName: __ZNSt3__112__destroy_atB7v160006INS_4pairINS_12basic_stringIcNS_11char_traitsIcEENS_9allocatorIcEEEES7_EELi0EEEvPT_, symObjAddr: 0x4BF8, symBinAddr: 0x100008AD8, symSize: 0x24 }
  - { offsetInCU: 0x17BB3, offset: 0x17BB3, size: 0x8, addend: 0x0, symName: __ZNSt3__118__debug_db_erase_cB7v160006INS_12__hash_tableINS_17__hash_value_typeINS_12basic_stringIcNS_11char_traitsIcEENS_9allocatorIcEEEENS_15__list_iteratorINS_4pairIS8_S8_EEPvEEEENS_22__unordered_map_hasherIS8_SE_NS_4hashIS8_EENS_8equal_toIS8_EELb1EEENS_21__unordered_map_equalIS8_SE_SJ_SH_Lb1EEENS6_ISE_EEEEEEvPT_, symObjAddr: 0x4E3C, symBinAddr: 0x100008D1C, symSize: 0x10 }
  - { offsetInCU: 0x17C17, offset: 0x17C17, size: 0x8, addend: 0x0, symName: __ZNSt3__110destroy_atB7v160006INS_4pairIKNS_12basic_stringIcNS_11char_traitsIcEENS_9allocatorIcEEEENS_15__list_iteratorINS1_IS7_S7_EEPvEEEELi0EEEvPT_, symObjAddr: 0x4F90, symBinAddr: 0x100008E70, symSize: 0x24 }
  - { offsetInCU: 0x17C4E, offset: 0x17C4E, size: 0x8, addend: 0x0, symName: __ZNSt3__112__destroy_atB7v160006INS_4pairIKNS_12basic_stringIcNS_11char_traitsIcEENS_9allocatorIcEEEENS_15__list_iteratorINS1_IS7_S7_EEPvEEEELi0EEEvPT_, symObjAddr: 0x4FB4, symBinAddr: 0x100008E94, symSize: 0x24 }
  - { offsetInCU: 0x17C85, offset: 0x17C85, size: 0x8, addend: 0x0, symName: __ZNSt3__17launderB7v160006INS_4pairIKNS_12basic_stringIcNS_11char_traitsIcEENS_9allocatorIcEEEENS_15__list_iteratorINS1_IS7_S7_EEPvEEEEEEPT_SF_, symObjAddr: 0x5054, symBinAddr: 0x100008F34, symSize: 0x24 }
  - { offsetInCU: 0x17CBC, offset: 0x17CBC, size: 0x8, addend: 0x0, symName: __ZNSt3__19__launderB7v160006INS_4pairIKNS_12basic_stringIcNS_11char_traitsIcEENS_9allocatorIcEEEENS_15__list_iteratorINS1_IS7_S7_EEPvEEEEEEPT_SF_, symObjAddr: 0x5078, symBinAddr: 0x100008F58, symSize: 0x14 }
  - { offsetInCU: 0x17CF3, offset: 0x17CF3, size: 0x8, addend: 0x0, symName: __ZNSt3__118__debug_db_erase_cB7v160006INS_10__list_impINS_4pairIiNS_12basic_stringIcNS_11char_traitsIcEENS_9allocatorIcEEEEEENS6_IS9_EEEEEEvPT_, symObjAddr: 0x5548, symBinAddr: 0x100009428, symSize: 0x10 }
  - { offsetInCU: 0x17D24, offset: 0x17D24, size: 0x8, addend: 0x0, symName: __ZNSt3__125__debug_db_invalidate_allB7v160006INS_10__list_impINS_4pairIiNS_12basic_stringIcNS_11char_traitsIcEENS_9allocatorIcEEEEEENS6_IS9_EEEEEEvPT_, symObjAddr: 0x56DC, symBinAddr: 0x1000095BC, symSize: 0x10 }
  - { offsetInCU: 0x17D88, offset: 0x17D88, size: 0x8, addend: 0x0, symName: __ZNSt3__110destroy_atB7v160006INS_4pairIiNS_12basic_stringIcNS_11char_traitsIcEENS_9allocatorIcEEEEEELi0EEEvPT_, symObjAddr: 0x57E0, symBinAddr: 0x1000096C0, symSize: 0x24 }
  - { offsetInCU: 0x17DBF, offset: 0x17DBF, size: 0x8, addend: 0x0, symName: __ZNSt3__112__destroy_atB7v160006INS_4pairIiNS_12basic_stringIcNS_11char_traitsIcEENS_9allocatorIcEEEEEELi0EEEvPT_, symObjAddr: 0x5804, symBinAddr: 0x1000096E4, symSize: 0x24 }
  - { offsetInCU: 0x17DF6, offset: 0x17DF6, size: 0x8, addend: 0x0, symName: __ZNSt3__118__debug_db_erase_cB7v160006INS_12__hash_tableINS_17__hash_value_typeIiNS_15__list_iteratorINS_4pairIiNS_12basic_stringIcNS_11char_traitsIcEENS_9allocatorIcEEEEEEPvEEEENS_22__unordered_map_hasherIiSE_NS_4hashIiEENS_8equal_toIiEELb1EEENS_21__unordered_map_equalIiSE_SJ_SH_Lb1EEENS8_ISE_EEEEEEvPT_, symObjAddr: 0x5A44, symBinAddr: 0x100009924, symSize: 0x10 }
  - { offsetInCU: 0x17E5A, offset: 0x17E5A, size: 0x8, addend: 0x0, symName: __ZNSt3__110destroy_atB7v160006INS_4pairIKiNS_15__list_iteratorINS1_IiNS_12basic_stringIcNS_11char_traitsIcEENS_9allocatorIcEEEEEEPvEEEELi0EEEvPT_, symObjAddr: 0x5B98, symBinAddr: 0x100009A78, symSize: 0x24 }
  - { offsetInCU: 0x17E91, offset: 0x17E91, size: 0x8, addend: 0x0, symName: __ZNSt3__112__destroy_atB7v160006INS_4pairIKiNS_15__list_iteratorINS1_IiNS_12basic_stringIcNS_11char_traitsIcEENS_9allocatorIcEEEEEEPvEEEELi0EEEvPT_, symObjAddr: 0x5BBC, symBinAddr: 0x100009A9C, symSize: 0x10 }
  - { offsetInCU: 0x17EC8, offset: 0x17EC8, size: 0x8, addend: 0x0, symName: __ZNSt3__17launderB7v160006INS_4pairIKiNS_15__list_iteratorINS1_IiNS_12basic_stringIcNS_11char_traitsIcEENS_9allocatorIcEEEEEEPvEEEEEEPT_SF_, symObjAddr: 0x5BF0, symBinAddr: 0x100009AD0, symSize: 0x24 }
  - { offsetInCU: 0x17EFF, offset: 0x17EFF, size: 0x8, addend: 0x0, symName: __ZNSt3__19__launderB7v160006INS_4pairIKiNS_15__list_iteratorINS1_IiNS_12basic_stringIcNS_11char_traitsIcEENS_9allocatorIcEEEEEEPvEEEEEEPT_SF_, symObjAddr: 0x5C14, symBinAddr: 0x100009AF4, symSize: 0x14 }
  - { offsetInCU: 0x17F36, offset: 0x17F36, size: 0x8, addend: 0x0, symName: __ZNSt3__118__debug_db_erase_cB7v160006INS_10__list_impINS_4pairINS_12basic_stringIcNS_11char_traitsIcEENS_9allocatorIcEEEEiEENS6_IS9_EEEEEEvPT_, symObjAddr: 0x6318, symBinAddr: 0x10000A1F8, symSize: 0x10 }
  - { offsetInCU: 0x17F67, offset: 0x17F67, size: 0x8, addend: 0x0, symName: __ZNSt3__125__debug_db_invalidate_allB7v160006INS_10__list_impINS_4pairINS_12basic_stringIcNS_11char_traitsIcEENS_9allocatorIcEEEEiEENS6_IS9_EEEEEEvPT_, symObjAddr: 0x64AC, symBinAddr: 0x10000A38C, symSize: 0x10 }
  - { offsetInCU: 0x17FCB, offset: 0x17FCB, size: 0x8, addend: 0x0, symName: __ZNSt3__110destroy_atB7v160006INS_4pairINS_12basic_stringIcNS_11char_traitsIcEENS_9allocatorIcEEEEiEELi0EEEvPT_, symObjAddr: 0x65B0, symBinAddr: 0x10000A490, symSize: 0x24 }
  - { offsetInCU: 0x18002, offset: 0x18002, size: 0x8, addend: 0x0, symName: __ZNSt3__112__destroy_atB7v160006INS_4pairINS_12basic_stringIcNS_11char_traitsIcEENS_9allocatorIcEEEEiEELi0EEEvPT_, symObjAddr: 0x65D4, symBinAddr: 0x10000A4B4, symSize: 0x24 }
  - { offsetInCU: 0x18039, offset: 0x18039, size: 0x8, addend: 0x0, symName: __ZNSt3__118__debug_db_erase_cB7v160006INS_12__hash_tableINS_17__hash_value_typeINS_12basic_stringIcNS_11char_traitsIcEENS_9allocatorIcEEEENS_15__list_iteratorINS_4pairIS8_iEEPvEEEENS_22__unordered_map_hasherIS8_SE_NS_4hashIS8_EENS_8equal_toIS8_EELb1EEENS_21__unordered_map_equalIS8_SE_SJ_SH_Lb1EEENS6_ISE_EEEEEEvPT_, symObjAddr: 0x6810, symBinAddr: 0x10000A6F0, symSize: 0x10 }
  - { offsetInCU: 0x1809D, offset: 0x1809D, size: 0x8, addend: 0x0, symName: __ZNSt3__110destroy_atB7v160006INS_4pairIKNS_12basic_stringIcNS_11char_traitsIcEENS_9allocatorIcEEEENS_15__list_iteratorINS1_IS7_iEEPvEEEELi0EEEvPT_, symObjAddr: 0x6964, symBinAddr: 0x10000A844, symSize: 0x24 }
  - { offsetInCU: 0x180D4, offset: 0x180D4, size: 0x8, addend: 0x0, symName: __ZNSt3__112__destroy_atB7v160006INS_4pairIKNS_12basic_stringIcNS_11char_traitsIcEENS_9allocatorIcEEEENS_15__list_iteratorINS1_IS7_iEEPvEEEELi0EEEvPT_, symObjAddr: 0x6988, symBinAddr: 0x10000A868, symSize: 0x24 }
  - { offsetInCU: 0x1810B, offset: 0x1810B, size: 0x8, addend: 0x0, symName: __ZNSt3__17launderB7v160006INS_4pairIKNS_12basic_stringIcNS_11char_traitsIcEENS_9allocatorIcEEEENS_15__list_iteratorINS1_IS7_iEEPvEEEEEEPT_SF_, symObjAddr: 0x6A28, symBinAddr: 0x10000A908, symSize: 0x24 }
  - { offsetInCU: 0x18142, offset: 0x18142, size: 0x8, addend: 0x0, symName: __ZNSt3__19__launderB7v160006INS_4pairIKNS_12basic_stringIcNS_11char_traitsIcEENS_9allocatorIcEEEENS_15__list_iteratorINS1_IS7_iEEPvEEEEEEPT_SF_, symObjAddr: 0x6A4C, symBinAddr: 0x10000A92C, symSize: 0x14 }
  - { offsetInCU: 0x18179, offset: 0x18179, size: 0x8, addend: 0x0, symName: __ZNSt3__119__debug_db_insert_cB7v160006INS_13unordered_mapI7TestKeyNS_15__list_iteratorINS_4pairIS2_9TestValueEEPvEENS_4hashIS2_EENS_8equal_toIS2_EENS_9allocatorINS4_IKS2_S8_EEEEEEEEvPT_, symObjAddr: 0x6E3C, symBinAddr: 0x10000AD1C, symSize: 0x10 }
  - { offsetInCU: 0x181AA, offset: 0x181AA, size: 0x8, addend: 0x0, symName: __ZNSt3__119__debug_db_insert_cB7v160006INS_4listINS_4pairI7TestKey9TestValueEENS_9allocatorIS5_EEEEEEvPT_, symObjAddr: 0x74CC, symBinAddr: 0x10000B3AC, symSize: 0x10 }
  - { offsetInCU: 0x181DB, offset: 0x181DB, size: 0x8, addend: 0x0, symName: __ZNSt3__1eqB7v160006ERKNS_19__hash_map_iteratorINS_15__hash_iteratorIPNS_11__hash_nodeINS_17__hash_value_typeI7TestKeyNS_15__list_iteratorINS_4pairIS4_9TestValueEEPvEEEES9_EEEEEESH_, symObjAddr: 0x767C, symBinAddr: 0x10000B55C, symSize: 0x30 }
  - { offsetInCU: 0x18218, offset: 0x18218, size: 0x8, addend: 0x0, symName: __ZNSt3__14prevB7v160006INS_15__list_iteratorINS_4pairI7TestKey9TestValueEEPvEEEENS_9enable_ifIXsr25__is_cpp17_input_iteratorIT_EE5valueES9_E4typeES9_NS_15iterator_traitsIS9_E15difference_typeE, symObjAddr: 0x7994, symBinAddr: 0x10000B874, symSize: 0x58 }
  - { offsetInCU: 0x1825B, offset: 0x1825B, size: 0x8, addend: 0x0, symName: __ZNSt3__116__constrain_hashB7v160006Emm, symObjAddr: 0x7ED8, symBinAddr: 0x10000BDB8, symSize: 0x98 }
  - { offsetInCU: 0x18295, offset: 0x18295, size: 0x8, addend: 0x0, symName: __ZNSt3__17launderB7v160006IKNS_4pairIK7TestKeyNS_15__list_iteratorINS1_IS2_9TestValueEEPvEEEEEEPT_SC_, symObjAddr: 0x8274, symBinAddr: 0x10000C154, symSize: 0x24 }
  - { offsetInCU: 0x182CC, offset: 0x182CC, size: 0x8, addend: 0x0, symName: __ZNSt3__19__launderB7v160006IKNS_4pairIK7TestKeyNS_15__list_iteratorINS1_IS2_9TestValueEEPvEEEEEEPT_SC_, symObjAddr: 0x8298, symBinAddr: 0x10000C178, symSize: 0x14 }
  - { offsetInCU: 0x18303, offset: 0x18303, size: 0x8, addend: 0x0, symName: __ZNSt3__1eqB7v160006ERKNS_15__hash_iteratorIPNS_11__hash_nodeINS_17__hash_value_typeI7TestKeyNS_15__list_iteratorINS_4pairIS3_9TestValueEEPvEEEES8_EEEESF_, symObjAddr: 0x82F0, symBinAddr: 0x10000C1D0, symSize: 0x30 }
  - { offsetInCU: 0x1837C, offset: 0x1837C, size: 0x8, addend: 0x0, symName: __ZNSt3__117__libcpp_allocateB7v160006Emm, symObjAddr: 0x8F24, symBinAddr: 0x10000CE04, symSize: 0x60 }
  - { offsetInCU: 0x183D6, offset: 0x183D6, size: 0x8, addend: 0x0, symName: __ZNSt3__121__libcpp_operator_newB7v160006IJmSt11align_val_tEEEPvDpT_, symObjAddr: 0x8FA0, symBinAddr: 0x10000CE80, symSize: 0x2C }
  - { offsetInCU: 0x18423, offset: 0x18423, size: 0x8, addend: 0x0, symName: __ZNSt3__121__libcpp_operator_newB7v160006IJmEEEPvDpT_, symObjAddr: 0x8FCC, symBinAddr: 0x10000CEAC, symSize: 0x24 }
  - { offsetInCU: 0x18481, offset: 0x18481, size: 0x8, addend: 0x0, symName: __ZNSt3__112construct_atB7v160006INS_4pairI7TestKey9TestValueEEJS4_EPS4_EEPT_S7_DpOT0_, symObjAddr: 0x9130, symBinAddr: 0x10000D010, symSize: 0x3C }
  - { offsetInCU: 0x184F1, offset: 0x184F1, size: 0x8, addend: 0x0, symName: __ZNSt3__115__debug_db_swapB7v160006INS_12basic_stringIcNS_11char_traitsIcEENS_9allocatorIcEEEEEEvPT_S8_, symObjAddr: 0x9304, symBinAddr: 0x10000D1E4, symSize: 0x14 }
  - { offsetInCU: 0x18530, offset: 0x18530, size: 0x8, addend: 0x0, symName: __ZNSt3__121__convert_to_integralB7v160006El, symObjAddr: 0x95A0, symBinAddr: 0x10000D480, symSize: 0x14 }
  - { offsetInCU: 0x1855C, offset: 0x1855C, size: 0x8, addend: 0x0, symName: __ZNSt3__19__advanceB7v160006INS_15__list_iteratorINS_4pairI7TestKey9TestValueEEPvEEEEvRT_NS_15iterator_traitsIS8_E15difference_typeENS_26bidirectional_iterator_tagE, symObjAddr: 0x95B4, symBinAddr: 0x10000D494, symSize: 0xA4 }
  - { offsetInCU: 0x185DC, offset: 0x185DC, size: 0x8, addend: 0x0, symName: __ZNSt3__116forward_as_tupleB7v160006IJRK7TestKeyEEENS_5tupleIJDpOT_EEES7_, symObjAddr: 0x9B74, symBinAddr: 0x10000DA54, symSize: 0x2C }
  - { offsetInCU: 0x18615, offset: 0x18615, size: 0x8, addend: 0x0, symName: __ZNSt3__116forward_as_tupleB7v160006IJEEENS_5tupleIJDpOT_EEES4_, symObjAddr: 0x9BA0, symBinAddr: 0x10000DA80, symSize: 0x4 }
  - { offsetInCU: 0x18639, offset: 0x18639, size: 0x8, addend: 0x0, symName: __ZNSt3__13maxB7v160006ImEERKT_S3_S3_, symObjAddr: 0x9D78, symBinAddr: 0x10000DC58, symSize: 0x2C }
  - { offsetInCU: 0x1867C, offset: 0x1867C, size: 0x8, addend: 0x0, symName: __ZNSt3__116__is_hash_power2B7v160006Em, symObjAddr: 0x9DA4, symBinAddr: 0x10000DC84, symSize: 0x50 }
  - { offsetInCU: 0x186CD, offset: 0x186CD, size: 0x8, addend: 0x0, symName: __ZNSt3__112construct_atB7v160006INS_4pairIK7TestKeyNS_15__list_iteratorINS1_IS2_9TestValueEEPvEEEEJRKNS_21piecewise_construct_tENS_5tupleIJRS3_EEENSD_IJEEEEPS9_EEPT_SJ_DpOT0_, symObjAddr: 0x9FEC, symBinAddr: 0x10000DECC, symSize: 0x50 }
  - { offsetInCU: 0x1876E, offset: 0x1876E, size: 0x8, addend: 0x0, symName: __ZNSt3__13getB7v160006ILm0EJRK7TestKeyEEERNS_13tuple_elementIXT_ENS_5tupleIJDpT0_EEEE4typeERS8_, symObjAddr: 0xA108, symBinAddr: 0x10000DFE8, symSize: 0x24 }
  - { offsetInCU: 0x187B1, offset: 0x187B1, size: 0x8, addend: 0x0, symName: __ZNSt3__119__debug_db_insert_iB7v160006INS_15__list_iteratorINS_4pairI7TestKey9TestValueEEPvEEEEvPT_, symObjAddr: 0xA1A8, symBinAddr: 0x10000E088, symSize: 0x10 }
  - { offsetInCU: 0x187E2, offset: 0x187E2, size: 0x8, addend: 0x0, symName: __ZNSt3__116__next_hash_pow2B7v160006Em, symObjAddr: 0xA628, symBinAddr: 0x10000E508, symSize: 0x6C }
  - { offsetInCU: 0x1880E, offset: 0x1880E, size: 0x8, addend: 0x0, symName: __ZNSt3__125__debug_db_invalidate_allB7v160006INS_12__hash_tableINS_17__hash_value_typeI7TestKeyNS_15__list_iteratorINS_4pairIS3_9TestValueEEPvEEEENS_22__unordered_map_hasherIS3_SA_NS_4hashIS3_EENS_8equal_toIS3_EELb1EEENS_21__unordered_map_equalIS3_SA_SF_SD_Lb1EEENS_9allocatorISA_EEEEEEvPT_, symObjAddr: 0xA694, symBinAddr: 0x10000E574, symSize: 0x10 }
  - { offsetInCU: 0x1883F, offset: 0x1883F, size: 0x8, addend: 0x0, symName: __ZNSt3__112__libcpp_clzB7v160006Em, symObjAddr: 0xA7EC, symBinAddr: 0x10000E6CC, symSize: 0x1C }
  - { offsetInCU: 0x1886B, offset: 0x1886B, size: 0x8, addend: 0x0, symName: __ZNSt3__13maxB7v160006ImNS_6__lessImmEEEERKT_S5_S5_T0_, symObjAddr: 0xA808, symBinAddr: 0x10000E6E8, symSize: 0x54 }
  - { offsetInCU: 0x1894F, offset: 0x1894F, size: 0x8, addend: 0x0, symName: __ZNSt3__112construct_atB7v160006INS_4pairI7TestKey9TestValueEEJRKS4_EPS4_EEPT_S9_DpOT0_, symObjAddr: 0xAA5C, symBinAddr: 0x10000E93C, symSize: 0x3C }
  - { offsetInCU: 0x189BF, offset: 0x189BF, size: 0x8, addend: 0x0, symName: __ZNSt3__119__debug_db_insert_cB7v160006INS_13unordered_mapINS_12basic_stringIcNS_11char_traitsIcEENS_9allocatorIcEEEENS_15__list_iteratorINS_4pairIS7_S7_EEPvEENS_4hashIS7_EENS_8equal_toIS7_EENS5_INS9_IKS7_SC_EEEEEEEEvPT_, symObjAddr: 0xABB0, symBinAddr: 0x10000EA90, symSize: 0x10 }
  - { offsetInCU: 0x189F0, offset: 0x189F0, size: 0x8, addend: 0x0, symName: __ZNSt3__119__debug_db_insert_cB7v160006INS_4listINS_4pairINS_12basic_stringIcNS_11char_traitsIcEENS_9allocatorIcEEEES8_EENS6_IS9_EEEEEEvPT_, symObjAddr: 0xB1F8, symBinAddr: 0x10000F0D8, symSize: 0x10 }
  - { offsetInCU: 0x18A21, offset: 0x18A21, size: 0x8, addend: 0x0, symName: __ZNSt3__1eqB7v160006ERKNS_19__hash_map_iteratorINS_15__hash_iteratorIPNS_11__hash_nodeINS_17__hash_value_typeINS_12basic_stringIcNS_11char_traitsIcEENS_9allocatorIcEEEENS_15__list_iteratorINS_4pairIS9_S9_EEPvEEEESD_EEEEEESL_, symObjAddr: 0xB3A8, symBinAddr: 0x10000F288, symSize: 0x30 }
  - { offsetInCU: 0x18A5E, offset: 0x18A5E, size: 0x8, addend: 0x0, symName: __ZNSt3__14prevB7v160006INS_15__list_iteratorINS_4pairINS_12basic_stringIcNS_11char_traitsIcEENS_9allocatorIcEEEES8_EEPvEEEENS_9enable_ifIXsr25__is_cpp17_input_iteratorIT_EE5valueESD_E4typeESD_NS_15iterator_traitsISD_E15difference_typeE, symObjAddr: 0xB6C0, symBinAddr: 0x10000F5A0, symSize: 0x58 }
  - { offsetInCU: 0x18AA1, offset: 0x18AA1, size: 0x8, addend: 0x0, symName: __ZNSt3__116__do_string_hashB7v160006IPKcEEmT_S3_, symObjAddr: 0xBD94, symBinAddr: 0x10000FC74, symSize: 0x3C }
  - { offsetInCU: 0x18AE7, offset: 0x18AE7, size: 0x8, addend: 0x0, symName: __ZNSt3__110__loadwordB7v160006ImEET_PKv, symObjAddr: 0xC788, symBinAddr: 0x100010668, symSize: 0x20 }
  - { offsetInCU: 0x18B2A, offset: 0x18B2A, size: 0x8, addend: 0x0, symName: __ZNSt3__14swapB7v160006ImEENS_9enable_ifIXaasr21is_move_constructibleIT_EE5valuesr18is_move_assignableIS2_EE5valueEvE4typeERS2_S5_, symObjAddr: 0xC944, symBinAddr: 0x100010824, symSize: 0x3C }
  - { offsetInCU: 0x18B7B, offset: 0x18B7B, size: 0x8, addend: 0x0, symName: __ZNSt3__110__loadwordB7v160006IjEET_PKv, symObjAddr: 0xC9D4, symBinAddr: 0x1000108B4, symSize: 0x20 }
  - { offsetInCU: 0x18BBE, offset: 0x18BBE, size: 0x8, addend: 0x0, symName: __ZNSt3__17launderB7v160006IKNS_4pairIKNS_12basic_stringIcNS_11char_traitsIcEENS_9allocatorIcEEEENS_15__list_iteratorINS1_IS7_S7_EEPvEEEEEEPT_SG_, symObjAddr: 0xCCB0, symBinAddr: 0x100010B90, symSize: 0x24 }
  - { offsetInCU: 0x18BF5, offset: 0x18BF5, size: 0x8, addend: 0x0, symName: __ZNSt3__19__launderB7v160006IKNS_4pairIKNS_12basic_stringIcNS_11char_traitsIcEENS_9allocatorIcEEEENS_15__list_iteratorINS1_IS7_S7_EEPvEEEEEEPT_SG_, symObjAddr: 0xCCD4, symBinAddr: 0x100010BB4, symSize: 0x14 }
  - { offsetInCU: 0x18C2C, offset: 0x18C2C, size: 0x8, addend: 0x0, symName: __ZNSt3__1eqB7v160006ERKNS_15__hash_iteratorIPNS_11__hash_nodeINS_17__hash_value_typeINS_12basic_stringIcNS_11char_traitsIcEENS_9allocatorIcEEEENS_15__list_iteratorINS_4pairIS8_S8_EEPvEEEESC_EEEESJ_, symObjAddr: 0xCD2C, symBinAddr: 0x100010C0C, symSize: 0x30 }
  - { offsetInCU: 0x18CCA, offset: 0x18CCA, size: 0x8, addend: 0x0, symName: __ZNSt3__112construct_atB7v160006INS_4pairINS_12basic_stringIcNS_11char_traitsIcEENS_9allocatorIcEEEES7_EEJS8_EPS8_EEPT_SB_DpOT0_, symObjAddr: 0xDA68, symBinAddr: 0x100011948, symSize: 0x3C }
  - { offsetInCU: 0x18D3A, offset: 0x18D3A, size: 0x8, addend: 0x0, symName: __ZNSt3__19__advanceB7v160006INS_15__list_iteratorINS_4pairINS_12basic_stringIcNS_11char_traitsIcEENS_9allocatorIcEEEES8_EEPvEEEEvRT_NS_15iterator_traitsISC_E15difference_typeENS_26bidirectional_iterator_tagE, symObjAddr: 0xDD68, symBinAddr: 0x100011C48, symSize: 0xA4 }
  - { offsetInCU: 0x18D83, offset: 0x18D83, size: 0x8, addend: 0x0, symName: __ZNSt3__116forward_as_tupleB7v160006IJRKNS_12basic_stringIcNS_11char_traitsIcEENS_9allocatorIcEEEEEEENS_5tupleIJDpOT_EEESC_, symObjAddr: 0xE320, symBinAddr: 0x100012200, symSize: 0x2C }
  - { offsetInCU: 0x18DE1, offset: 0x18DE1, size: 0x8, addend: 0x0, symName: __ZNSt3__112construct_atB7v160006INS_4pairIKNS_12basic_stringIcNS_11char_traitsIcEENS_9allocatorIcEEEENS_15__list_iteratorINS1_IS7_S7_EEPvEEEEJRKNS_21piecewise_construct_tENS_5tupleIJRS8_EEENSH_IJEEEEPSD_EEPT_SN_DpOT0_, symObjAddr: 0xE704, symBinAddr: 0x1000125E4, symSize: 0x50 }
  - { offsetInCU: 0x18E77, offset: 0x18E77, size: 0x8, addend: 0x0, symName: __ZNSt3__13getB7v160006ILm0EJRKNS_12basic_stringIcNS_11char_traitsIcEENS_9allocatorIcEEEEEEERNS_13tuple_elementIXT_ENS_5tupleIJDpT0_EEEE4typeERSD_, symObjAddr: 0xE81C, symBinAddr: 0x1000126FC, symSize: 0x24 }
  - { offsetInCU: 0x18EBA, offset: 0x18EBA, size: 0x8, addend: 0x0, symName: __ZNSt3__119__debug_db_insert_iB7v160006INS_15__list_iteratorINS_4pairINS_12basic_stringIcNS_11char_traitsIcEENS_9allocatorIcEEEES8_EEPvEEEEvPT_, symObjAddr: 0xE8BC, symBinAddr: 0x10001279C, symSize: 0x10 }
  - { offsetInCU: 0x18EEB, offset: 0x18EEB, size: 0x8, addend: 0x0, symName: __ZNSt3__125__debug_db_invalidate_allB7v160006INS_12__hash_tableINS_17__hash_value_typeINS_12basic_stringIcNS_11char_traitsIcEENS_9allocatorIcEEEENS_15__list_iteratorINS_4pairIS8_S8_EEPvEEEENS_22__unordered_map_hasherIS8_SE_NS_4hashIS8_EENS_8equal_toIS8_EELb1EEENS_21__unordered_map_equalIS8_SE_SJ_SH_Lb1EEENS6_ISE_EEEEEEvPT_, symObjAddr: 0xED28, symBinAddr: 0x100012C08, symSize: 0x10 }
  - { offsetInCU: 0x18F97, offset: 0x18F97, size: 0x8, addend: 0x0, symName: __ZNSt3__112construct_atB7v160006INS_4pairINS_12basic_stringIcNS_11char_traitsIcEENS_9allocatorIcEEEES7_EEJRKS8_EPS8_EEPT_SD_DpOT0_, symObjAddr: 0xF0A8, symBinAddr: 0x100012F88, symSize: 0x3C }
  - { offsetInCU: 0x19007, offset: 0x19007, size: 0x8, addend: 0x0, symName: __ZNSt3__119__debug_db_insert_cB7v160006INS_13unordered_mapIiNS_15__list_iteratorINS_4pairIiNS_12basic_stringIcNS_11char_traitsIcEENS_9allocatorIcEEEEEEPvEENS_4hashIiEENS_8equal_toIiEENS7_INS3_IKiSC_EEEEEEEEvPT_, symObjAddr: 0xF1FC, symBinAddr: 0x1000130DC, symSize: 0x10 }
  - { offsetInCU: 0x19038, offset: 0x19038, size: 0x8, addend: 0x0, symName: __ZNSt3__119__debug_db_insert_cB7v160006INS_4listINS_4pairIiNS_12basic_stringIcNS_11char_traitsIcEENS_9allocatorIcEEEEEENS6_IS9_EEEEEEvPT_, symObjAddr: 0xF844, symBinAddr: 0x100013724, symSize: 0x10 }
  - { offsetInCU: 0x19069, offset: 0x19069, size: 0x8, addend: 0x0, symName: __ZNSt3__1eqB7v160006ERKNS_19__hash_map_iteratorINS_15__hash_iteratorIPNS_11__hash_nodeINS_17__hash_value_typeIiNS_15__list_iteratorINS_4pairIiNS_12basic_stringIcNS_11char_traitsIcEENS_9allocatorIcEEEEEEPvEEEESD_EEEEEESL_, symObjAddr: 0xF9F4, symBinAddr: 0x1000138D4, symSize: 0x30 }
  - { offsetInCU: 0x190A6, offset: 0x190A6, size: 0x8, addend: 0x0, symName: __ZNSt3__14prevB7v160006INS_15__list_iteratorINS_4pairIiNS_12basic_stringIcNS_11char_traitsIcEENS_9allocatorIcEEEEEEPvEEEENS_9enable_ifIXsr25__is_cpp17_input_iteratorIT_EE5valueESD_E4typeESD_NS_15iterator_traitsISD_E15difference_typeE, symObjAddr: 0xFD0C, symBinAddr: 0x100013BEC, symSize: 0x58 }
  - { offsetInCU: 0x190E9, offset: 0x190E9, size: 0x8, addend: 0x0, symName: __ZNSt3__17launderB7v160006IKNS_4pairIKiNS_15__list_iteratorINS1_IiNS_12basic_stringIcNS_11char_traitsIcEENS_9allocatorIcEEEEEEPvEEEEEEPT_SG_, symObjAddr: 0x1050C, symBinAddr: 0x1000143EC, symSize: 0x24 }
  - { offsetInCU: 0x19120, offset: 0x19120, size: 0x8, addend: 0x0, symName: __ZNSt3__19__launderB7v160006IKNS_4pairIKiNS_15__list_iteratorINS1_IiNS_12basic_stringIcNS_11char_traitsIcEENS_9allocatorIcEEEEEEPvEEEEEEPT_SG_, symObjAddr: 0x10530, symBinAddr: 0x100014410, symSize: 0x14 }
  - { offsetInCU: 0x19157, offset: 0x19157, size: 0x8, addend: 0x0, symName: __ZNSt3__1eqB7v160006ERKNS_15__hash_iteratorIPNS_11__hash_nodeINS_17__hash_value_typeIiNS_15__list_iteratorINS_4pairIiNS_12basic_stringIcNS_11char_traitsIcEENS_9allocatorIcEEEEEEPvEEEESC_EEEESJ_, symObjAddr: 0x10588, symBinAddr: 0x100014468, symSize: 0x30 }
  - { offsetInCU: 0x191F5, offset: 0x191F5, size: 0x8, addend: 0x0, symName: __ZNSt3__112construct_atB7v160006INS_4pairIiNS_12basic_stringIcNS_11char_traitsIcEENS_9allocatorIcEEEEEEJS8_EPS8_EEPT_SB_DpOT0_, symObjAddr: 0x112C8, symBinAddr: 0x1000151A8, symSize: 0x3C }
  - { offsetInCU: 0x19265, offset: 0x19265, size: 0x8, addend: 0x0, symName: __ZNSt3__19__advanceB7v160006INS_15__list_iteratorINS_4pairIiNS_12basic_stringIcNS_11char_traitsIcEENS_9allocatorIcEEEEEEPvEEEEvRT_NS_15iterator_traitsISC_E15difference_typeENS_26bidirectional_iterator_tagE, symObjAddr: 0x115A0, symBinAddr: 0x100015480, symSize: 0xA4 }
  - { offsetInCU: 0x192AE, offset: 0x192AE, size: 0x8, addend: 0x0, symName: __ZNSt3__116forward_as_tupleB7v160006IJRKiEEENS_5tupleIJDpOT_EEES6_, symObjAddr: 0x11B58, symBinAddr: 0x100015A38, symSize: 0x2C }
  - { offsetInCU: 0x1930C, offset: 0x1930C, size: 0x8, addend: 0x0, symName: __ZNSt3__112construct_atB7v160006INS_4pairIKiNS_15__list_iteratorINS1_IiNS_12basic_stringIcNS_11char_traitsIcEENS_9allocatorIcEEEEEEPvEEEEJRKNS_21piecewise_construct_tENS_5tupleIJRS2_EEENSH_IJEEEEPSD_EEPT_SN_DpOT0_, symObjAddr: 0x11F38, symBinAddr: 0x100015E18, symSize: 0x50 }
  - { offsetInCU: 0x193A2, offset: 0x193A2, size: 0x8, addend: 0x0, symName: __ZNSt3__13getB7v160006ILm0EJRKiEEERNS_13tuple_elementIXT_ENS_5tupleIJDpT0_EEEE4typeERS7_, symObjAddr: 0x12054, symBinAddr: 0x100015F34, symSize: 0x24 }
  - { offsetInCU: 0x193E5, offset: 0x193E5, size: 0x8, addend: 0x0, symName: __ZNSt3__119__debug_db_insert_iB7v160006INS_15__list_iteratorINS_4pairIiNS_12basic_stringIcNS_11char_traitsIcEENS_9allocatorIcEEEEEEPvEEEEvPT_, symObjAddr: 0x120F4, symBinAddr: 0x100015FD4, symSize: 0x10 }
  - { offsetInCU: 0x19416, offset: 0x19416, size: 0x8, addend: 0x0, symName: __ZNSt3__125__debug_db_invalidate_allB7v160006INS_12__hash_tableINS_17__hash_value_typeIiNS_15__list_iteratorINS_4pairIiNS_12basic_stringIcNS_11char_traitsIcEENS_9allocatorIcEEEEEEPvEEEENS_22__unordered_map_hasherIiSE_NS_4hashIiEENS_8equal_toIiEELb1EEENS_21__unordered_map_equalIiSE_SJ_SH_Lb1EEENS8_ISE_EEEEEEvPT_, symObjAddr: 0x12560, symBinAddr: 0x100016440, symSize: 0x10 }
  - { offsetInCU: 0x194C2, offset: 0x194C2, size: 0x8, addend: 0x0, symName: __ZNSt3__112construct_atB7v160006INS_4pairIiNS_12basic_stringIcNS_11char_traitsIcEENS_9allocatorIcEEEEEEJRKS8_EPS8_EEPT_SD_DpOT0_, symObjAddr: 0x128B8, symBinAddr: 0x100016798, symSize: 0x3C }
  - { offsetInCU: 0x19556, offset: 0x19556, size: 0x8, addend: 0x0, symName: __ZNSt3__119__debug_db_insert_cB7v160006INS_13unordered_mapINS_12basic_stringIcNS_11char_traitsIcEENS_9allocatorIcEEEENS_15__list_iteratorINS_4pairIS7_iEEPvEENS_4hashIS7_EENS_8equal_toIS7_EENS5_INS9_IKS7_SC_EEEEEEEEvPT_, symObjAddr: 0x12B1C, symBinAddr: 0x1000169FC, symSize: 0x10 }
  - { offsetInCU: 0x19587, offset: 0x19587, size: 0x8, addend: 0x0, symName: __ZNSt3__119__debug_db_insert_cB7v160006INS_4listINS_4pairINS_12basic_stringIcNS_11char_traitsIcEENS_9allocatorIcEEEEiEENS6_IS9_EEEEEEvPT_, symObjAddr: 0x13164, symBinAddr: 0x100017044, symSize: 0x10 }
  - { offsetInCU: 0x195B8, offset: 0x195B8, size: 0x8, addend: 0x0, symName: __ZNSt3__1eqB7v160006ERKNS_19__hash_map_iteratorINS_15__hash_iteratorIPNS_11__hash_nodeINS_17__hash_value_typeINS_12basic_stringIcNS_11char_traitsIcEENS_9allocatorIcEEEENS_15__list_iteratorINS_4pairIS9_iEEPvEEEESD_EEEEEESL_, symObjAddr: 0x13394, symBinAddr: 0x100017274, symSize: 0x30 }
  - { offsetInCU: 0x195F5, offset: 0x195F5, size: 0x8, addend: 0x0, symName: __ZNSt3__14prevB7v160006INS_15__list_iteratorINS_4pairINS_12basic_stringIcNS_11char_traitsIcEENS_9allocatorIcEEEEiEEPvEEEENS_9enable_ifIXsr25__is_cpp17_input_iteratorIT_EE5valueESD_E4typeESD_NS_15iterator_traitsISD_E15difference_typeE, symObjAddr: 0x13654, symBinAddr: 0x100017534, symSize: 0x58 }
  - { offsetInCU: 0x19638, offset: 0x19638, size: 0x8, addend: 0x0, symName: __ZNSt3__17launderB7v160006IKNS_4pairIKNS_12basic_stringIcNS_11char_traitsIcEENS_9allocatorIcEEEENS_15__list_iteratorINS1_IS7_iEEPvEEEEEEPT_SG_, symObjAddr: 0x13C0C, symBinAddr: 0x100017AEC, symSize: 0x24 }
  - { offsetInCU: 0x1966F, offset: 0x1966F, size: 0x8, addend: 0x0, symName: __ZNSt3__19__launderB7v160006IKNS_4pairIKNS_12basic_stringIcNS_11char_traitsIcEENS_9allocatorIcEEEENS_15__list_iteratorINS1_IS7_iEEPvEEEEEEPT_SG_, symObjAddr: 0x13C30, symBinAddr: 0x100017B10, symSize: 0x14 }
  - { offsetInCU: 0x196A6, offset: 0x196A6, size: 0x8, addend: 0x0, symName: __ZNSt3__1eqB7v160006ERKNS_15__hash_iteratorIPNS_11__hash_nodeINS_17__hash_value_typeINS_12basic_stringIcNS_11char_traitsIcEENS_9allocatorIcEEEENS_15__list_iteratorINS_4pairIS8_iEEPvEEEESC_EEEESJ_, symObjAddr: 0x13C88, symBinAddr: 0x100017B68, symSize: 0x30 }
  - { offsetInCU: 0x1978C, offset: 0x1978C, size: 0x8, addend: 0x0, symName: __ZNSt3__112construct_atB7v160006INS_4pairINS_12basic_stringIcNS_11char_traitsIcEENS_9allocatorIcEEEEiEEJRKS8_EPS8_EEPT_SD_DpOT0_, symObjAddr: 0x14220, symBinAddr: 0x100018100, symSize: 0x3C }
  - { offsetInCU: 0x197FC, offset: 0x197FC, size: 0x8, addend: 0x0, symName: __ZNSt3__19__advanceB7v160006INS_15__list_iteratorINS_4pairINS_12basic_stringIcNS_11char_traitsIcEENS_9allocatorIcEEEEiEEPvEEEEvRT_NS_15iterator_traitsISC_E15difference_typeENS_26bidirectional_iterator_tagE, symObjAddr: 0x14434, symBinAddr: 0x100018314, symSize: 0xA4 }
  - { offsetInCU: 0x19863, offset: 0x19863, size: 0x8, addend: 0x0, symName: __ZNSt3__112construct_atB7v160006INS_4pairINS_12basic_stringIcNS_11char_traitsIcEENS_9allocatorIcEEEEiEEJS8_EPS8_EEPT_SB_DpOT0_, symObjAddr: 0x15028, symBinAddr: 0x100018F08, symSize: 0x3C }
  - { offsetInCU: 0x198F8, offset: 0x198F8, size: 0x8, addend: 0x0, symName: __ZNSt3__112construct_atB7v160006INS_4pairIKNS_12basic_stringIcNS_11char_traitsIcEENS_9allocatorIcEEEENS_15__list_iteratorINS1_IS7_iEEPvEEEEJRKNS_21piecewise_construct_tENS_5tupleIJRS8_EEENSH_IJEEEEPSD_EEPT_SN_DpOT0_, symObjAddr: 0x1593C, symBinAddr: 0x10001981C, symSize: 0x50 }
  - { offsetInCU: 0x1998E, offset: 0x1998E, size: 0x8, addend: 0x0, symName: __ZNSt3__119__debug_db_insert_iB7v160006INS_15__list_iteratorINS_4pairINS_12basic_stringIcNS_11char_traitsIcEENS_9allocatorIcEEEEiEEPvEEEEvPT_, symObjAddr: 0x15AB8, symBinAddr: 0x100019998, symSize: 0x10 }
  - { offsetInCU: 0x199BF, offset: 0x199BF, size: 0x8, addend: 0x0, symName: __ZNSt3__125__debug_db_invalidate_allB7v160006INS_12__hash_tableINS_17__hash_value_typeINS_12basic_stringIcNS_11char_traitsIcEENS_9allocatorIcEEEENS_15__list_iteratorINS_4pairIS8_iEEPvEEEENS_22__unordered_map_hasherIS8_SE_NS_4hashIS8_EENS_8equal_toIS8_EELb1EEENS_21__unordered_map_equalIS8_SE_SJ_SH_Lb1EEENS6_ISE_EEEEEEvPT_, symObjAddr: 0x15F24, symBinAddr: 0x100019E04, symSize: 0x10 }
  - { offsetInCU: 0x19BD7, offset: 0x19BD7, size: 0x8, addend: 0x0, symName: __ZSt28__throw_bad_array_new_lengthB7v160006v, symObjAddr: 0x8EF0, symBinAddr: 0x10000CDD0, symSize: 0x34 }
  - { offsetInCU: 0x1A0B1, offset: 0x1A0B1, size: 0x8, addend: 0x0, symName: __ZNKSt3__16chrono15__duration_castINS0_8durationIxNS_5ratioILl1ELl1000000000EEEEENS2_IdNS3_ILl1ELl1EEEEES4_Lb1ELb0EEclB7v160006ERKS5_, symObjAddr: 0x6080, symBinAddr: 0x100009F60, symSize: 0x50 }
  - { offsetInCU: 0x1D3A2, offset: 0x1D3A2, size: 0x8, addend: 0x0, symName: __ZeqRK7TestKeyS1_, symObjAddr: 0x0, symBinAddr: 0x100003EE0, symSize: 0x64 }
  - { offsetInCU: 0x1D3DC, offset: 0x1D3DC, size: 0x8, addend: 0x0, symName: __ZeqRK9TestValueS1_, symObjAddr: 0x64, symBinAddr: 0x100003F44, symSize: 0x30 }
  - { offsetInCU: 0x1D416, offset: 0x1D416, size: 0x8, addend: 0x0, symName: __Z14TestPropertiesv, symObjAddr: 0x1DC, symBinAddr: 0x1000040BC, symSize: 0x320 }
  - { offsetInCU: 0x1D76A, offset: 0x1D76A, size: 0x8, addend: 0x0, symName: __ZN8LruCacheI7TestKey9TestValueEC1Ei, symObjAddr: 0x4FC, symBinAddr: 0x1000043DC, symSize: 0x34 }
  - { offsetInCU: 0x1D7A0, offset: 0x1D7A0, size: 0x8, addend: 0x0, symName: __ZN8LruCacheI7TestKey9TestValueE3PutERKS0_RKS1_, symObjAddr: 0x530, symBinAddr: 0x100004410, symSize: 0x2D0 }
  - { offsetInCU: 0x1D80A, offset: 0x1D80A, size: 0x8, addend: 0x0, symName: __ZNSt3__112basic_stringIcNS_11char_traitsIcEENS_9allocatorIcEEEC1B7v160006IDnEEPKc, symObjAddr: 0x800, symBinAddr: 0x1000046E0, symSize: 0x34 }
  - { offsetInCU: 0x1D84C, offset: 0x1D84C, size: 0x8, addend: 0x0, symName: __ZN9TestValueD1Ev, symObjAddr: 0x834, symBinAddr: 0x100004714, symSize: 0x2C }
  - { offsetInCU: 0x1D877, offset: 0x1D877, size: 0x8, addend: 0x0, symName: __ZN9TestValueC1Ev, symObjAddr: 0x860, symBinAddr: 0x100004740, symSize: 0x2C }
  - { offsetInCU: 0x1D8A1, offset: 0x1D8A1, size: 0x8, addend: 0x0, symName: __ZN8LruCacheI7TestKey9TestValueE3GetERKS0_PS1_, symObjAddr: 0x88C, symBinAddr: 0x10000476C, symSize: 0x190 }
  - { offsetInCU: 0x1D906, offset: 0x1D906, size: 0x8, addend: 0x0, symName: __ZN8LruCacheI7TestKey9TestValueED1Ev, symObjAddr: 0xA1C, symBinAddr: 0x1000048FC, symSize: 0x2C }
  - { offsetInCU: 0x1D930, offset: 0x1D930, size: 0x8, addend: 0x0, symName: __Z10TestSimplev, symObjAddr: 0xA48, symBinAddr: 0x100004928, symSize: 0x588 }
  - { offsetInCU: 0x1DC81, offset: 0x1DC81, size: 0x8, addend: 0x0, symName: __ZN8LruCacheINSt3__112basic_stringIcNS0_11char_traitsIcEENS0_9allocatorIcEEEES6_EC1Ei, symObjAddr: 0xFD0, symBinAddr: 0x100004EB0, symSize: 0x34 }
  - { offsetInCU: 0x1DCB7, offset: 0x1DCB7, size: 0x8, addend: 0x0, symName: __ZN8LruCacheINSt3__112basic_stringIcNS0_11char_traitsIcEENS0_9allocatorIcEEEES6_E3PutERKS6_S9_, symObjAddr: 0x1004, symBinAddr: 0x100004EE4, symSize: 0x2D0 }
  - { offsetInCU: 0x1DD1C, offset: 0x1DD1C, size: 0x8, addend: 0x0, symName: __ZNSt3__112basic_stringIcNS_11char_traitsIcEENS_9allocatorIcEEEC1B7v160006Ev, symObjAddr: 0x12D4, symBinAddr: 0x1000051B4, symSize: 0x2C }
  - { offsetInCU: 0x1DD44, offset: 0x1DD44, size: 0x8, addend: 0x0, symName: __ZN8LruCacheINSt3__112basic_stringIcNS0_11char_traitsIcEENS0_9allocatorIcEEEES6_E3GetERKS6_PS6_, symObjAddr: 0x1300, symBinAddr: 0x1000051E0, symSize: 0x190 }
  - { offsetInCU: 0x1DDA9, offset: 0x1DDA9, size: 0x8, addend: 0x0, symName: __ZNSt3__112basic_stringIcNS_11char_traitsIcEENS_9allocatorIcEEEC1B7v160006Emc, symObjAddr: 0x1490, symBinAddr: 0x100005370, symSize: 0x3C }
  - { offsetInCU: 0x1DDF0, offset: 0x1DDF0, size: 0x8, addend: 0x0, symName: __ZN8LruCacheINSt3__112basic_stringIcNS0_11char_traitsIcEENS0_9allocatorIcEEEES6_ED1Ev, symObjAddr: 0x1528, symBinAddr: 0x100005408, symSize: 0x2C }
  - { offsetInCU: 0x1DE1A, offset: 0x1DE1A, size: 0x8, addend: 0x0, symName: __Z12TestEvictionv, symObjAddr: 0x1554, symBinAddr: 0x100005434, symSize: 0xC68 }
  - { offsetInCU: 0x1E150, offset: 0x1E150, size: 0x8, addend: 0x0, symName: __ZN8LruCacheIiNSt3__112basic_stringIcNS0_11char_traitsIcEENS0_9allocatorIcEEEEEC1Ei, symObjAddr: 0x21BC, symBinAddr: 0x10000609C, symSize: 0x34 }
  - { offsetInCU: 0x1E186, offset: 0x1E186, size: 0x8, addend: 0x0, symName: __ZN8LruCacheIiNSt3__112basic_stringIcNS0_11char_traitsIcEENS0_9allocatorIcEEEEE3PutERKiRKS6_, symObjAddr: 0x21F0, symBinAddr: 0x1000060D0, symSize: 0x2D0 }
  - { offsetInCU: 0x1E1EA, offset: 0x1E1EA, size: 0x8, addend: 0x0, symName: __ZN8LruCacheIiNSt3__112basic_stringIcNS0_11char_traitsIcEENS0_9allocatorIcEEEEE3GetERKiPS6_, symObjAddr: 0x24C0, symBinAddr: 0x1000063A0, symSize: 0x190 }
  - { offsetInCU: 0x1E24F, offset: 0x1E24F, size: 0x8, addend: 0x0, symName: __ZN8LruCacheIiNSt3__112basic_stringIcNS0_11char_traitsIcEENS0_9allocatorIcEEEEED1Ev, symObjAddr: 0x2650, symBinAddr: 0x100006530, symSize: 0x2C }
  - { offsetInCU: 0x1E279, offset: 0x1E279, size: 0x8, addend: 0x0, symName: __Z10TestStressv, symObjAddr: 0x267C, symBinAddr: 0x10000655C, symSize: 0x28C }
  - { offsetInCU: 0x1E302, offset: 0x1E302, size: 0x8, addend: 0x0, symName: __ZNSt3__123mersenne_twister_engineIjLm32ELm624ELm397ELm31ELj2567483615ELm11ELj4294967295ELm7ELj2636928640ELm15ELj4022730752ELm18ELj1812433253EEC1B7v160006Ej, symObjAddr: 0x2908, symBinAddr: 0x1000067E8, symSize: 0x34 }
  - { offsetInCU: 0x1E636, offset: 0x1E636, size: 0x8, addend: 0x0, symName: __ZN8LruCacheINSt3__112basic_stringIcNS0_11char_traitsIcEENS0_9allocatorIcEEEEiEC1Ei, symObjAddr: 0x293C, symBinAddr: 0x10000681C, symSize: 0x34 }
  - { offsetInCU: 0x1E66D, offset: 0x1E66D, size: 0x8, addend: 0x0, symName: __ZNSt3__123mersenne_twister_engineIjLm32ELm624ELm397ELm31ELj2567483615ELm11ELj4294967295ELm7ELj2636928640ELm15ELj4022730752ELm18ELj1812433253EEclEv, symObjAddr: 0x2970, symBinAddr: 0x100006850, symSize: 0x14C }
  - { offsetInCU: 0x1E6DE, offset: 0x1E6DE, size: 0x8, addend: 0x0, symName: __ZN8LruCacheINSt3__112basic_stringIcNS0_11char_traitsIcEENS0_9allocatorIcEEEEiE3GetERKS6_Pi, symObjAddr: 0x2ABC, symBinAddr: 0x10000699C, symSize: 0x1A8 }
  - { offsetInCU: 0x1E742, offset: 0x1E742, size: 0x8, addend: 0x0, symName: __ZN8LruCacheINSt3__112basic_stringIcNS0_11char_traitsIcEENS0_9allocatorIcEEEEiE3PutERKS6_RKi, symObjAddr: 0x2C64, symBinAddr: 0x100006B44, symSize: 0x2C0 }
  - { offsetInCU: 0x1E7AC, offset: 0x1E7AC, size: 0x8, addend: 0x0, symName: __ZNSt3__16chrono8durationIdNS_5ratioILl1ELl1EEEEC1B7v160006IxNS2_ILl1ELl1000000000EEEEERKNS1_IT_T0_EEPNS_9enable_ifIXaasr13__no_overflowIS8_S3_EE5valueooL_ZNS_17integral_constantIbLb1EE5valueEEaaeqsr13__no_overflowIS8_S3_E4typeE3denLi1Entsr23treat_as_floating_pointIS7_EE5valueEvE4typeE, symObjAddr: 0x2F7C, symBinAddr: 0x100006E5C, symSize: 0x3C }
  - { offsetInCU: 0x1E802, offset: 0x1E802, size: 0x8, addend: 0x0, symName: __ZNKSt3__16chrono8durationIdNS_5ratioILl1ELl1EEEE5countB7v160006Ev, symObjAddr: 0x2FB8, symBinAddr: 0x100006E98, symSize: 0x18 }
  - { offsetInCU: 0x1E827, offset: 0x1E827, size: 0x8, addend: 0x0, symName: __ZN8LruCacheINSt3__112basic_stringIcNS0_11char_traitsIcEENS0_9allocatorIcEEEEiED1Ev, symObjAddr: 0x2FD0, symBinAddr: 0x100006EB0, symSize: 0x2C }
  - { offsetInCU: 0x1E852, offset: 0x1E852, size: 0x8, addend: 0x0, symName: _main, symObjAddr: 0x2FFC, symBinAddr: 0x100006EDC, symSize: 0x38 }
  - { offsetInCU: 0x1E86B, offset: 0x1E86B, size: 0x8, addend: 0x0, symName: __ZNKSt3__112basic_stringIcNS_11char_traitsIcEENS_9allocatorIcEEE4sizeB7v160006Ev, symObjAddr: 0x3034, symBinAddr: 0x100006F14, symSize: 0x54 }
  - { offsetInCU: 0x1E88F, offset: 0x1E88F, size: 0x8, addend: 0x0, symName: __ZNKSt3__112basic_stringIcNS_11char_traitsIcEENS_9allocatorIcEEE4dataB7v160006Ev, symObjAddr: 0x3088, symBinAddr: 0x100006F68, symSize: 0x28 }
  - { offsetInCU: 0x1E8B3, offset: 0x1E8B3, size: 0x8, addend: 0x0, symName: __ZNKSt3__112basic_stringIcNS_11char_traitsIcEENS_9allocatorIcEEE9__is_longB7v160006Ev, symObjAddr: 0x30B0, symBinAddr: 0x100006F90, symSize: 0x38 }
  - { offsetInCU: 0x1E8D8, offset: 0x1E8D8, size: 0x8, addend: 0x0, symName: __ZNSt3__111char_traitsIcE7compareEPKcS3_m, symObjAddr: 0x30E8, symBinAddr: 0x100006FC8, symSize: 0x6C }
  - { offsetInCU: 0x1E916, offset: 0x1E916, size: 0x8, addend: 0x0, symName: __ZNKSt3__112basic_stringIcNS_11char_traitsIcEENS_9allocatorIcEEE15__get_long_sizeB7v160006Ev, symObjAddr: 0x3154, symBinAddr: 0x100007034, symSize: 0x28 }
  - { offsetInCU: 0x1E93A, offset: 0x1E93A, size: 0x8, addend: 0x0, symName: __ZNKSt3__112basic_stringIcNS_11char_traitsIcEENS_9allocatorIcEEE16__get_short_sizeB7v160006Ev, symObjAddr: 0x317C, symBinAddr: 0x10000705C, symSize: 0x34 }
  - { offsetInCU: 0x1E95E, offset: 0x1E95E, size: 0x8, addend: 0x0, symName: __ZNKSt3__117__compressed_pairINS_12basic_stringIcNS_11char_traitsIcEENS_9allocatorIcEEE5__repES5_E5firstB7v160006Ev, symObjAddr: 0x31B0, symBinAddr: 0x100007090, symSize: 0x24 }
  - { offsetInCU: 0x1E983, offset: 0x1E983, size: 0x8, addend: 0x0, symName: __ZNKSt3__122__compressed_pair_elemINS_12basic_stringIcNS_11char_traitsIcEENS_9allocatorIcEEE5__repELi0ELb0EE5__getB7v160006Ev, symObjAddr: 0x31D4, symBinAddr: 0x1000070B4, symSize: 0x14 }
  - { offsetInCU: 0x1E9A7, offset: 0x1E9A7, size: 0x8, addend: 0x0, symName: __ZNKSt3__112basic_stringIcNS_11char_traitsIcEENS_9allocatorIcEEE13__get_pointerB7v160006Ev, symObjAddr: 0x31FC, symBinAddr: 0x1000070DC, symSize: 0x54 }
  - { offsetInCU: 0x1E9CB, offset: 0x1E9CB, size: 0x8, addend: 0x0, symName: __ZNKSt3__112basic_stringIcNS_11char_traitsIcEENS_9allocatorIcEEE18__get_long_pointerB7v160006Ev, symObjAddr: 0x3250, symBinAddr: 0x100007130, symSize: 0x28 }
  - { offsetInCU: 0x1E9EF, offset: 0x1E9EF, size: 0x8, addend: 0x0, symName: __ZNKSt3__112basic_stringIcNS_11char_traitsIcEENS_9allocatorIcEEE19__get_short_pointerB7v160006Ev, symObjAddr: 0x3278, symBinAddr: 0x100007158, symSize: 0x28 }
  - { offsetInCU: 0x1EA14, offset: 0x1EA14, size: 0x8, addend: 0x0, symName: __ZNSt3__114pointer_traitsIPKcE10pointer_toB7v160006ERS1_, symObjAddr: 0x32A0, symBinAddr: 0x100007180, symSize: 0x14 }
  - { offsetInCU: 0x1EA37, offset: 0x1EA37, size: 0x8, addend: 0x0, symName: __ZNSt3__112basic_stringIcNS_11char_traitsIcEENS_9allocatorIcEEEC2B7v160006IDnEEPKc, symObjAddr: 0x32F4, symBinAddr: 0x1000071D4, symSize: 0x60 }
  - { offsetInCU: 0x1EA79, offset: 0x1EA79, size: 0x8, addend: 0x0, symName: __ZNSt3__117__compressed_pairINS_12basic_stringIcNS_11char_traitsIcEENS_9allocatorIcEEE5__repES5_EC1B7v160006INS_18__default_init_tagESA_EEOT_OT0_, symObjAddr: 0x3354, symBinAddr: 0x100007234, symSize: 0x3C }
  - { offsetInCU: 0x1EAD0, offset: 0x1EAD0, size: 0x8, addend: 0x0, symName: __ZNSt3__111char_traitsIcE6lengthEPKc, symObjAddr: 0x3390, symBinAddr: 0x100007270, symSize: 0x34 }
  - { offsetInCU: 0x1EAF3, offset: 0x1EAF3, size: 0x8, addend: 0x0, symName: __ZNSt3__117__compressed_pairINS_12basic_stringIcNS_11char_traitsIcEENS_9allocatorIcEEE5__repES5_EC2B7v160006INS_18__default_init_tagESA_EEOT_OT0_, symObjAddr: 0x33D4, symBinAddr: 0x1000072B4, symSize: 0x3C }
  - { offsetInCU: 0x1EB4A, offset: 0x1EB4A, size: 0x8, addend: 0x0, symName: __ZNSt3__122__compressed_pair_elemINS_12basic_stringIcNS_11char_traitsIcEENS_9allocatorIcEEE5__repELi0ELb0EEC2B7v160006ENS_18__default_init_tagE, symObjAddr: 0x3410, symBinAddr: 0x1000072F0, symSize: 0x14 }
  - { offsetInCU: 0x1EB7D, offset: 0x1EB7D, size: 0x8, addend: 0x0, symName: __ZNSt3__122__compressed_pair_elemINS_9allocatorIcEELi1ELb1EEC2B7v160006ENS_18__default_init_tagE, symObjAddr: 0x3424, symBinAddr: 0x100007304, symSize: 0x2C }
  - { offsetInCU: 0x1EBB0, offset: 0x1EBB0, size: 0x8, addend: 0x0, symName: __ZNSt3__19allocatorIcEC2B7v160006Ev, symObjAddr: 0x3450, symBinAddr: 0x100007330, symSize: 0x2C }
  - { offsetInCU: 0x1EBD9, offset: 0x1EBD9, size: 0x8, addend: 0x0, symName: __ZNSt3__116__non_trivial_ifILb1ENS_9allocatorIcEEEC2B7v160006Ev, symObjAddr: 0x347C, symBinAddr: 0x10000735C, symSize: 0x14 }
  - { offsetInCU: 0x1EC02, offset: 0x1EC02, size: 0x8, addend: 0x0, symName: __ZN9TestValueD2Ev, symObjAddr: 0x34B4, symBinAddr: 0x100007394, symSize: 0x2C }
  - { offsetInCU: 0x1EC2D, offset: 0x1EC2D, size: 0x8, addend: 0x0, symName: __ZN9TestValueC2Ev, symObjAddr: 0x34E0, symBinAddr: 0x1000073C0, symSize: 0x2C }
  - { offsetInCU: 0x1EC58, offset: 0x1EC58, size: 0x8, addend: 0x0, symName: __ZN8LruCacheI7TestKey9TestValueED2Ev, symObjAddr: 0x350C, symBinAddr: 0x1000073EC, symSize: 0x38 }
  - { offsetInCU: 0x1EC83, offset: 0x1EC83, size: 0x8, addend: 0x0, symName: __ZNSt3__14listINS_4pairI7TestKey9TestValueEENS_9allocatorIS4_EEED1Ev, symObjAddr: 0x3544, symBinAddr: 0x100007424, symSize: 0x2C }
  - { offsetInCU: 0x1ECAF, offset: 0x1ECAF, size: 0x8, addend: 0x0, symName: __ZNSt3__113unordered_mapI7TestKeyNS_15__list_iteratorINS_4pairIS1_9TestValueEEPvEENS_4hashIS1_EENS_8equal_toIS1_EENS_9allocatorINS3_IKS1_S7_EEEEED1B7v160006Ev, symObjAddr: 0x3570, symBinAddr: 0x100007450, symSize: 0x2C }
  - { offsetInCU: 0x1ECD8, offset: 0x1ECD8, size: 0x8, addend: 0x0, symName: __ZNSt3__14listINS_4pairI7TestKey9TestValueEENS_9allocatorIS4_EEED2Ev, symObjAddr: 0x359C, symBinAddr: 0x10000747C, symSize: 0x2C }
  - { offsetInCU: 0x1ED04, offset: 0x1ED04, size: 0x8, addend: 0x0, symName: __ZNSt3__110__list_impINS_4pairI7TestKey9TestValueEENS_9allocatorIS4_EEED2Ev, symObjAddr: 0x35C8, symBinAddr: 0x1000074A8, symSize: 0x3C }
  - { offsetInCU: 0x1ED2F, offset: 0x1ED2F, size: 0x8, addend: 0x0, symName: __ZNSt3__110__list_impINS_4pairI7TestKey9TestValueEENS_9allocatorIS4_EEE5clearEv, symObjAddr: 0x3604, symBinAddr: 0x1000074E4, symSize: 0xEC }
  - { offsetInCU: 0x1ED9F, offset: 0x1ED9F, size: 0x8, addend: 0x0, symName: __ZNKSt3__110__list_impINS_4pairI7TestKey9TestValueEENS_9allocatorIS4_EEE5emptyB7v160006Ev, symObjAddr: 0x3700, symBinAddr: 0x1000075E0, symSize: 0x34 }
  - { offsetInCU: 0x1EDC3, offset: 0x1EDC3, size: 0x8, addend: 0x0, symName: __ZNSt3__110__list_impINS_4pairI7TestKey9TestValueEENS_9allocatorIS4_EEE12__node_allocB7v160006Ev, symObjAddr: 0x3734, symBinAddr: 0x100007614, symSize: 0x28 }
  - { offsetInCU: 0x1EDE7, offset: 0x1EDE7, size: 0x8, addend: 0x0, symName: __ZNKSt3__110__list_impINS_4pairI7TestKey9TestValueEENS_9allocatorIS4_EEE13__end_as_linkB7v160006Ev, symObjAddr: 0x375C, symBinAddr: 0x10000763C, symSize: 0x44 }
  - { offsetInCU: 0x1EE0C, offset: 0x1EE0C, size: 0x8, addend: 0x0, symName: __ZNSt3__110__list_impINS_4pairI7TestKey9TestValueEENS_9allocatorIS4_EEE14__unlink_nodesEPNS_16__list_node_baseIS4_PvEESB_, symObjAddr: 0x37A0, symBinAddr: 0x100007680, symSize: 0x3C }
  - { offsetInCU: 0x1EE40, offset: 0x1EE40, size: 0x8, addend: 0x0, symName: __ZNSt3__110__list_impINS_4pairI7TestKey9TestValueEENS_9allocatorIS4_EEE4__szB7v160006Ev, symObjAddr: 0x37DC, symBinAddr: 0x1000076BC, symSize: 0x28 }
  - { offsetInCU: 0x1EE64, offset: 0x1EE64, size: 0x8, addend: 0x0, symName: __ZNSt3__116__list_node_baseINS_4pairI7TestKey9TestValueEEPvE9__as_nodeB7v160006Ev, symObjAddr: 0x3804, symBinAddr: 0x1000076E4, symSize: 0x24 }
  - { offsetInCU: 0x1EE89, offset: 0x1EE89, size: 0x8, addend: 0x0, symName: __ZNSt3__116allocator_traitsINS_9allocatorINS_11__list_nodeINS_4pairI7TestKey9TestValueEEPvEEEEE7destroyB7v160006IS6_vvEEvRS9_PT_, symObjAddr: 0x3828, symBinAddr: 0x100007708, symSize: 0x28 }
  - { offsetInCU: 0x1EEC4, offset: 0x1EEC4, size: 0x8, addend: 0x0, symName: __ZNSt3__116allocator_traitsINS_9allocatorINS_11__list_nodeINS_4pairI7TestKey9TestValueEEPvEEEEE10deallocateB7v160006ERS9_PS8_m, symObjAddr: 0x3850, symBinAddr: 0x100007730, symSize: 0x34 }
  - { offsetInCU: 0x1EF05, offset: 0x1EF05, size: 0x8, addend: 0x0, symName: __ZNKSt3__110__list_impINS_4pairI7TestKey9TestValueEENS_9allocatorIS4_EEE4__szB7v160006Ev, symObjAddr: 0x3894, symBinAddr: 0x100007774, symSize: 0x28 }
  - { offsetInCU: 0x1EF29, offset: 0x1EF29, size: 0x8, addend: 0x0, symName: __ZNKSt3__117__compressed_pairImNS_9allocatorINS_11__list_nodeINS_4pairI7TestKey9TestValueEEPvEEEEE5firstB7v160006Ev, symObjAddr: 0x38BC, symBinAddr: 0x10000779C, symSize: 0x24 }
  - { offsetInCU: 0x1EF4E, offset: 0x1EF4E, size: 0x8, addend: 0x0, symName: __ZNKSt3__122__compressed_pair_elemImLi0ELb0EE5__getB7v160006Ev, symObjAddr: 0x38E0, symBinAddr: 0x1000077C0, symSize: 0x14 }
  - { offsetInCU: 0x1EF72, offset: 0x1EF72, size: 0x8, addend: 0x0, symName: __ZNSt3__117__compressed_pairImNS_9allocatorINS_11__list_nodeINS_4pairI7TestKey9TestValueEEPvEEEEE6secondB7v160006Ev, symObjAddr: 0x38F4, symBinAddr: 0x1000077D4, symSize: 0x24 }
  - { offsetInCU: 0x1EF97, offset: 0x1EF97, size: 0x8, addend: 0x0, symName: __ZNSt3__122__compressed_pair_elemINS_9allocatorINS_11__list_nodeINS_4pairI7TestKey9TestValueEEPvEEEELi1ELb1EE5__getB7v160006Ev, symObjAddr: 0x3918, symBinAddr: 0x1000077F8, symSize: 0x14 }
  - { offsetInCU: 0x1EFBC, offset: 0x1EFBC, size: 0x8, addend: 0x0, symName: __ZNSt3__126__list_node_pointer_traitsINS_4pairI7TestKey9TestValueEEPvE26__unsafe_link_pointer_castB7v160006EPNS_16__list_node_baseIS4_S5_EE, symObjAddr: 0x392C, symBinAddr: 0x10000780C, symSize: 0x14 }
  - { offsetInCU: 0x1EFDF, offset: 0x1EFDF, size: 0x8, addend: 0x0, symName: __ZNSt3__116__list_node_baseINS_4pairI7TestKey9TestValueEEPvE6__selfB7v160006Ev, symObjAddr: 0x3940, symBinAddr: 0x100007820, symSize: 0x24 }
  - { offsetInCU: 0x1F009, offset: 0x1F009, size: 0x8, addend: 0x0, symName: __ZNSt3__114pointer_traitsIPNS_16__list_node_baseINS_4pairI7TestKey9TestValueEEPvEEE10pointer_toB7v160006ERS7_, symObjAddr: 0x3964, symBinAddr: 0x100007844, symSize: 0x14 }
  - { offsetInCU: 0x1F02B, offset: 0x1F02B, size: 0x8, addend: 0x0, symName: __ZNSt3__117__compressed_pairImNS_9allocatorINS_11__list_nodeINS_4pairI7TestKey9TestValueEEPvEEEEE5firstB7v160006Ev, symObjAddr: 0x3978, symBinAddr: 0x100007858, symSize: 0x24 }
  - { offsetInCU: 0x1F050, offset: 0x1F050, size: 0x8, addend: 0x0, symName: __ZNSt3__122__compressed_pair_elemImLi0ELb0EE5__getB7v160006Ev, symObjAddr: 0x399C, symBinAddr: 0x10000787C, symSize: 0x14 }
  - { offsetInCU: 0x1F075, offset: 0x1F075, size: 0x8, addend: 0x0, symName: __ZNSt3__14pairI7TestKey9TestValueED1Ev, symObjAddr: 0x39F8, symBinAddr: 0x1000078D8, symSize: 0x2C }
  - { offsetInCU: 0x1F0A0, offset: 0x1F0A0, size: 0x8, addend: 0x0, symName: __ZNSt3__14pairI7TestKey9TestValueED2Ev, symObjAddr: 0x3A24, symBinAddr: 0x100007904, symSize: 0x30 }
  - { offsetInCU: 0x1F0CA, offset: 0x1F0CA, size: 0x8, addend: 0x0, symName: __ZNSt3__19allocatorINS_11__list_nodeINS_4pairI7TestKey9TestValueEEPvEEE10deallocateB7v160006EPS7_m, symObjAddr: 0x3A54, symBinAddr: 0x100007934, symSize: 0x44 }
  - { offsetInCU: 0x1F10B, offset: 0x1F10B, size: 0x8, addend: 0x0, symName: __ZNSt3__113unordered_mapI7TestKeyNS_15__list_iteratorINS_4pairIS1_9TestValueEEPvEENS_4hashIS1_EENS_8equal_toIS1_EENS_9allocatorINS3_IKS1_S7_EEEEED2B7v160006Ev, symObjAddr: 0x3BC0, symBinAddr: 0x100007AA0, symSize: 0x2C }
  - { offsetInCU: 0x1F134, offset: 0x1F134, size: 0x8, addend: 0x0, symName: __ZNSt3__112__hash_tableINS_17__hash_value_typeI7TestKeyNS_15__list_iteratorINS_4pairIS2_9TestValueEEPvEEEENS_22__unordered_map_hasherIS2_S9_NS_4hashIS2_EENS_8equal_toIS2_EELb1EEENS_21__unordered_map_equalIS2_S9_SE_SC_Lb1EEENS_9allocatorIS9_EEED1Ev, symObjAddr: 0x3BEC, symBinAddr: 0x100007ACC, symSize: 0x2C }
  - { offsetInCU: 0x1F15F, offset: 0x1F15F, size: 0x8, addend: 0x0, symName: __ZNSt3__112__hash_tableINS_17__hash_value_typeI7TestKeyNS_15__list_iteratorINS_4pairIS2_9TestValueEEPvEEEENS_22__unordered_map_hasherIS2_S9_NS_4hashIS2_EENS_8equal_toIS2_EELb1EEENS_21__unordered_map_equalIS2_S9_SE_SC_Lb1EEENS_9allocatorIS9_EEED2Ev, symObjAddr: 0x3C18, symBinAddr: 0x100007AF8, symSize: 0x58 }
  - { offsetInCU: 0x1F18A, offset: 0x1F18A, size: 0x8, addend: 0x0, symName: __ZNSt3__112__hash_tableINS_17__hash_value_typeI7TestKeyNS_15__list_iteratorINS_4pairIS2_9TestValueEEPvEEEENS_22__unordered_map_hasherIS2_S9_NS_4hashIS2_EENS_8equal_toIS2_EELb1EEENS_21__unordered_map_equalIS2_S9_SE_SC_Lb1EEENS_9allocatorIS9_EEE17__deallocate_nodeEPNS_16__hash_node_baseIPNS_11__hash_nodeIS9_S7_EEEE, symObjAddr: 0x3C70, symBinAddr: 0x100007B50, symSize: 0xA8 }
  - { offsetInCU: 0x1F1F3, offset: 0x1F1F3, size: 0x8, addend: 0x0, symName: __ZNSt3__117__compressed_pairINS_16__hash_node_baseIPNS_11__hash_nodeINS_17__hash_value_typeI7TestKeyNS_15__list_iteratorINS_4pairIS4_9TestValueEEPvEEEES9_EEEENS_9allocatorISC_EEE5firstB7v160006Ev, symObjAddr: 0x3D18, symBinAddr: 0x100007BF8, symSize: 0x24 }
  - { offsetInCU: 0x1F218, offset: 0x1F218, size: 0x8, addend: 0x0, symName: __ZNSt3__110unique_ptrIA_PNS_16__hash_node_baseIPNS_11__hash_nodeINS_17__hash_value_typeI7TestKeyNS_15__list_iteratorINS_4pairIS4_9TestValueEEPvEEEES9_EEEENS_25__bucket_list_deallocatorINS_9allocatorISF_EEEEED1B7v160006Ev, symObjAddr: 0x3D4C, symBinAddr: 0x100007C2C, symSize: 0x2C }
  - { offsetInCU: 0x1F240, offset: 0x1F240, size: 0x8, addend: 0x0, symName: __ZNSt3__112__hash_tableINS_17__hash_value_typeI7TestKeyNS_15__list_iteratorINS_4pairIS2_9TestValueEEPvEEEENS_22__unordered_map_hasherIS2_S9_NS_4hashIS2_EENS_8equal_toIS2_EELb1EEENS_21__unordered_map_equalIS2_S9_SE_SC_Lb1EEENS_9allocatorIS9_EEE12__node_allocB7v160006Ev, symObjAddr: 0x3D78, symBinAddr: 0x100007C58, symSize: 0x28 }
  - { offsetInCU: 0x1F264, offset: 0x1F264, size: 0x8, addend: 0x0, symName: __ZNSt3__116__hash_node_baseIPNS_11__hash_nodeINS_17__hash_value_typeI7TestKeyNS_15__list_iteratorINS_4pairIS3_9TestValueEEPvEEEES8_EEE8__upcastB7v160006Ev, symObjAddr: 0x3DA0, symBinAddr: 0x100007C80, symSize: 0x24 }
  - { offsetInCU: 0x1F289, offset: 0x1F289, size: 0x8, addend: 0x0, symName: __ZNSt3__116allocator_traitsINS_9allocatorINS_11__hash_nodeINS_17__hash_value_typeI7TestKeyNS_15__list_iteratorINS_4pairIS4_9TestValueEEPvEEEES9_EEEEE7destroyB7v160006INS6_IKS4_SA_EEvvEEvRSD_PT_, symObjAddr: 0x3DC4, symBinAddr: 0x100007CA4, symSize: 0x28 }
  - { offsetInCU: 0x1F2C4, offset: 0x1F2C4, size: 0x8, addend: 0x0, symName: __ZNSt3__122__hash_key_value_typesINS_17__hash_value_typeI7TestKeyNS_15__list_iteratorINS_4pairIS2_9TestValueEEPvEEEEE9__get_ptrB7v160006ERS9_, symObjAddr: 0x3DEC, symBinAddr: 0x100007CCC, symSize: 0x24 }
  - { offsetInCU: 0x1F2E7, offset: 0x1F2E7, size: 0x8, addend: 0x0, symName: __ZNSt3__116allocator_traitsINS_9allocatorINS_11__hash_nodeINS_17__hash_value_typeI7TestKeyNS_15__list_iteratorINS_4pairIS4_9TestValueEEPvEEEES9_EEEEE10deallocateB7v160006ERSD_PSC_m, symObjAddr: 0x3E10, symBinAddr: 0x100007CF0, symSize: 0x34 }
  - { offsetInCU: 0x1F328, offset: 0x1F328, size: 0x8, addend: 0x0, symName: __ZNSt3__117__compressed_pairINS_16__hash_node_baseIPNS_11__hash_nodeINS_17__hash_value_typeI7TestKeyNS_15__list_iteratorINS_4pairIS4_9TestValueEEPvEEEES9_EEEENS_9allocatorISC_EEE6secondB7v160006Ev, symObjAddr: 0x3E44, symBinAddr: 0x100007D24, symSize: 0x24 }
  - { offsetInCU: 0x1F34D, offset: 0x1F34D, size: 0x8, addend: 0x0, symName: __ZNSt3__122__compressed_pair_elemINS_9allocatorINS_11__hash_nodeINS_17__hash_value_typeI7TestKeyNS_15__list_iteratorINS_4pairIS4_9TestValueEEPvEEEES9_EEEELi1ELb1EE5__getB7v160006Ev, symObjAddr: 0x3E68, symBinAddr: 0x100007D48, symSize: 0x14 }
  - { offsetInCU: 0x1F372, offset: 0x1F372, size: 0x8, addend: 0x0, symName: __ZNSt3__114pointer_traitsIPNS_16__hash_node_baseIPNS_11__hash_nodeINS_17__hash_value_typeI7TestKeyNS_15__list_iteratorINS_4pairIS4_9TestValueEEPvEEEES9_EEEEE10pointer_toB7v160006ERSE_, symObjAddr: 0x3E7C, symBinAddr: 0x100007D5C, symSize: 0x14 }
  - { offsetInCU: 0x1F394, offset: 0x1F394, size: 0x8, addend: 0x0, symName: __ZNSt3__117__hash_value_typeI7TestKeyNS_15__list_iteratorINS_4pairIS1_9TestValueEEPvEEE11__get_valueB7v160006Ev, symObjAddr: 0x3EC4, symBinAddr: 0x100007DA4, symSize: 0x24 }
  - { offsetInCU: 0x1F3B8, offset: 0x1F3B8, size: 0x8, addend: 0x0, symName: __ZNSt3__19allocatorINS_11__hash_nodeINS_17__hash_value_typeI7TestKeyNS_15__list_iteratorINS_4pairIS3_9TestValueEEPvEEEES8_EEE10deallocateB7v160006EPSB_m, symObjAddr: 0x3F20, symBinAddr: 0x100007E00, symSize: 0x40 }
  - { offsetInCU: 0x1F3F9, offset: 0x1F3F9, size: 0x8, addend: 0x0, symName: __ZNSt3__122__compressed_pair_elemINS_16__hash_node_baseIPNS_11__hash_nodeINS_17__hash_value_typeI7TestKeyNS_15__list_iteratorINS_4pairIS4_9TestValueEEPvEEEES9_EEEELi0ELb0EE5__getB7v160006Ev, symObjAddr: 0x3F60, symBinAddr: 0x100007E40, symSize: 0x14 }
  - { offsetInCU: 0x1F41E, offset: 0x1F41E, size: 0x8, addend: 0x0, symName: __ZNSt3__110unique_ptrIA_PNS_16__hash_node_baseIPNS_11__hash_nodeINS_17__hash_value_typeI7TestKeyNS_15__list_iteratorINS_4pairIS4_9TestValueEEPvEEEES9_EEEENS_25__bucket_list_deallocatorINS_9allocatorISF_EEEEED2B7v160006Ev, symObjAddr: 0x3F74, symBinAddr: 0x100007E54, symSize: 0x30 }
  - { offsetInCU: 0x1F446, offset: 0x1F446, size: 0x8, addend: 0x0, symName: __ZNSt3__110unique_ptrIA_PNS_16__hash_node_baseIPNS_11__hash_nodeINS_17__hash_value_typeI7TestKeyNS_15__list_iteratorINS_4pairIS4_9TestValueEEPvEEEES9_EEEENS_25__bucket_list_deallocatorINS_9allocatorISF_EEEEE5resetB7v160006EDn, symObjAddr: 0x3FA4, symBinAddr: 0x100007E84, symSize: 0x6C }
  - { offsetInCU: 0x1F485, offset: 0x1F485, size: 0x8, addend: 0x0, symName: __ZNSt3__117__compressed_pairIPPNS_16__hash_node_baseIPNS_11__hash_nodeINS_17__hash_value_typeI7TestKeyNS_15__list_iteratorINS_4pairIS4_9TestValueEEPvEEEES9_EEEENS_25__bucket_list_deallocatorINS_9allocatorISF_EEEEE5firstB7v160006Ev, symObjAddr: 0x4010, symBinAddr: 0x100007EF0, symSize: 0x24 }
  - { offsetInCU: 0x1F4A9, offset: 0x1F4A9, size: 0x8, addend: 0x0, symName: __ZNSt3__117__compressed_pairIPPNS_16__hash_node_baseIPNS_11__hash_nodeINS_17__hash_value_typeI7TestKeyNS_15__list_iteratorINS_4pairIS4_9TestValueEEPvEEEES9_EEEENS_25__bucket_list_deallocatorINS_9allocatorISF_EEEEE6secondB7v160006Ev, symObjAddr: 0x4034, symBinAddr: 0x100007F14, symSize: 0x28 }
  - { offsetInCU: 0x1F4CD, offset: 0x1F4CD, size: 0x8, addend: 0x0, symName: __ZNSt3__125__bucket_list_deallocatorINS_9allocatorIPNS_16__hash_node_baseIPNS_11__hash_nodeINS_17__hash_value_typeI7TestKeyNS_15__list_iteratorINS_4pairIS5_9TestValueEEPvEEEESA_EEEEEEEclB7v160006EPSG_, symObjAddr: 0x405C, symBinAddr: 0x100007F3C, symSize: 0x58 }
  - { offsetInCU: 0x1F501, offset: 0x1F501, size: 0x8, addend: 0x0, symName: __ZNSt3__122__compressed_pair_elemIPPNS_16__hash_node_baseIPNS_11__hash_nodeINS_17__hash_value_typeI7TestKeyNS_15__list_iteratorINS_4pairIS4_9TestValueEEPvEEEES9_EEEELi0ELb0EE5__getB7v160006Ev, symObjAddr: 0x40B4, symBinAddr: 0x100007F94, symSize: 0x14 }
  - { offsetInCU: 0x1F526, offset: 0x1F526, size: 0x8, addend: 0x0, symName: __ZNSt3__122__compressed_pair_elemINS_25__bucket_list_deallocatorINS_9allocatorIPNS_16__hash_node_baseIPNS_11__hash_nodeINS_17__hash_value_typeI7TestKeyNS_15__list_iteratorINS_4pairIS6_9TestValueEEPvEEEESB_EEEEEEEELi1ELb0EE5__getB7v160006Ev, symObjAddr: 0x40C8, symBinAddr: 0x100007FA8, symSize: 0x14 }
  - { offsetInCU: 0x1F54B, offset: 0x1F54B, size: 0x8, addend: 0x0, symName: __ZNSt3__116allocator_traitsINS_9allocatorIPNS_16__hash_node_baseIPNS_11__hash_nodeINS_17__hash_value_typeI7TestKeyNS_15__list_iteratorINS_4pairIS5_9TestValueEEPvEEEESA_EEEEEEE10deallocateB7v160006ERSH_PSG_m, symObjAddr: 0x40DC, symBinAddr: 0x100007FBC, symSize: 0x34 }
  - { offsetInCU: 0x1F58C, offset: 0x1F58C, size: 0x8, addend: 0x0, symName: __ZNSt3__125__bucket_list_deallocatorINS_9allocatorIPNS_16__hash_node_baseIPNS_11__hash_nodeINS_17__hash_value_typeI7TestKeyNS_15__list_iteratorINS_4pairIS5_9TestValueEEPvEEEESA_EEEEEEE7__allocB7v160006Ev, symObjAddr: 0x4110, symBinAddr: 0x100007FF0, symSize: 0x24 }
  - { offsetInCU: 0x1F5B0, offset: 0x1F5B0, size: 0x8, addend: 0x0, symName: __ZNSt3__125__bucket_list_deallocatorINS_9allocatorIPNS_16__hash_node_baseIPNS_11__hash_nodeINS_17__hash_value_typeI7TestKeyNS_15__list_iteratorINS_4pairIS5_9TestValueEEPvEEEESA_EEEEEEE4sizeB7v160006Ev, symObjAddr: 0x4134, symBinAddr: 0x100008014, symSize: 0x24 }
  - { offsetInCU: 0x1F5D4, offset: 0x1F5D4, size: 0x8, addend: 0x0, symName: __ZNSt3__19allocatorIPNS_16__hash_node_baseIPNS_11__hash_nodeINS_17__hash_value_typeI7TestKeyNS_15__list_iteratorINS_4pairIS4_9TestValueEEPvEEEES9_EEEEE10deallocateB7v160006EPSF_m, symObjAddr: 0x4158, symBinAddr: 0x100008038, symSize: 0x40 }
  - { offsetInCU: 0x1F614, offset: 0x1F614, size: 0x8, addend: 0x0, symName: __ZNSt3__117__compressed_pairImNS_9allocatorIPNS_16__hash_node_baseIPNS_11__hash_nodeINS_17__hash_value_typeI7TestKeyNS_15__list_iteratorINS_4pairIS5_9TestValueEEPvEEEESA_EEEEEEE6secondB7v160006Ev, symObjAddr: 0x4198, symBinAddr: 0x100008078, symSize: 0x24 }
  - { offsetInCU: 0x1F639, offset: 0x1F639, size: 0x8, addend: 0x0, symName: __ZNSt3__122__compressed_pair_elemINS_9allocatorIPNS_16__hash_node_baseIPNS_11__hash_nodeINS_17__hash_value_typeI7TestKeyNS_15__list_iteratorINS_4pairIS5_9TestValueEEPvEEEESA_EEEEEELi1ELb1EE5__getB7v160006Ev, symObjAddr: 0x41BC, symBinAddr: 0x10000809C, symSize: 0x14 }
  - { offsetInCU: 0x1F65D, offset: 0x1F65D, size: 0x8, addend: 0x0, symName: __ZNSt3__117__compressed_pairImNS_9allocatorIPNS_16__hash_node_baseIPNS_11__hash_nodeINS_17__hash_value_typeI7TestKeyNS_15__list_iteratorINS_4pairIS5_9TestValueEEPvEEEESA_EEEEEEE5firstB7v160006Ev, symObjAddr: 0x41D0, symBinAddr: 0x1000080B0, symSize: 0x24 }
  - { offsetInCU: 0x1F682, offset: 0x1F682, size: 0x8, addend: 0x0, symName: __ZNSt3__112basic_stringIcNS_11char_traitsIcEENS_9allocatorIcEEEC2B7v160006Ev, symObjAddr: 0x41F4, symBinAddr: 0x1000080D4, symSize: 0x50 }
  - { offsetInCU: 0x1F6AA, offset: 0x1F6AA, size: 0x8, addend: 0x0, symName: __ZNSt3__112basic_stringIcNS_11char_traitsIcEENS_9allocatorIcEEE14__default_initB7v160006Ev, symObjAddr: 0x4244, symBinAddr: 0x100008124, symSize: 0x40 }
  - { offsetInCU: 0x1F6CE, offset: 0x1F6CE, size: 0x8, addend: 0x0, symName: __ZNSt3__117__compressed_pairINS_12basic_stringIcNS_11char_traitsIcEENS_9allocatorIcEEE5__repES5_E5firstB7v160006Ev, symObjAddr: 0x4284, symBinAddr: 0x100008164, symSize: 0x24 }
  - { offsetInCU: 0x1F6F3, offset: 0x1F6F3, size: 0x8, addend: 0x0, symName: __ZNSt3__122__compressed_pair_elemINS_12basic_stringIcNS_11char_traitsIcEENS_9allocatorIcEEE5__repELi0ELb0EE5__getB7v160006Ev, symObjAddr: 0x42A8, symBinAddr: 0x100008188, symSize: 0x14 }
  - { offsetInCU: 0x1F718, offset: 0x1F718, size: 0x8, addend: 0x0, symName: __ZNSt3__112basic_stringIcNS_11char_traitsIcEENS_9allocatorIcEEEC2B7v160006Emc, symObjAddr: 0x42BC, symBinAddr: 0x10000819C, symSize: 0x54 }
  - { offsetInCU: 0x1F75E, offset: 0x1F75E, size: 0x8, addend: 0x0, symName: __ZNKSt3__112basic_stringIcNS_11char_traitsIcEENS_9allocatorIcEEEcvNS_17basic_string_viewIcS2_EEB7v160006Ev, symObjAddr: 0x43C0, symBinAddr: 0x1000082A0, symSize: 0x50 }
  - { offsetInCU: 0x1F783, offset: 0x1F783, size: 0x8, addend: 0x0, symName: __ZNSt3__117basic_string_viewIcNS_11char_traitsIcEEEC1B7v160006EPKc, symObjAddr: 0x4410, symBinAddr: 0x1000082F0, symSize: 0x34 }
  - { offsetInCU: 0x1F7BB, offset: 0x1F7BB, size: 0x8, addend: 0x0, symName: __ZNKSt3__117basic_string_viewIcNS_11char_traitsIcEEE4sizeB7v160006Ev, symObjAddr: 0x4444, symBinAddr: 0x100008324, symSize: 0x18 }
  - { offsetInCU: 0x1F7DF, offset: 0x1F7DF, size: 0x8, addend: 0x0, symName: __ZNKSt3__117basic_string_viewIcNS_11char_traitsIcEEE7compareES3_, symObjAddr: 0x445C, symBinAddr: 0x10000833C, symSize: 0x13C }
  - { offsetInCU: 0x1F831, offset: 0x1F831, size: 0x8, addend: 0x0, symName: __ZNKSt3__117basic_string_viewIcNS_11char_traitsIcEEE4dataB7v160006Ev, symObjAddr: 0x45C4, symBinAddr: 0x1000084A4, symSize: 0x18 }
  - { offsetInCU: 0x1F860, offset: 0x1F860, size: 0x8, addend: 0x0, symName: __ZNKSt3__16__lessImmEclB7v160006ERKmS3_, symObjAddr: 0x4630, symBinAddr: 0x100008510, symSize: 0x34 }
  - { offsetInCU: 0x1F8A1, offset: 0x1F8A1, size: 0x8, addend: 0x0, symName: __ZNSt3__117basic_string_viewIcNS_11char_traitsIcEEEC1B7v160006EPKcm, symObjAddr: 0x4664, symBinAddr: 0x100008544, symSize: 0x3C }
  - { offsetInCU: 0x1F8E8, offset: 0x1F8E8, size: 0x8, addend: 0x0, symName: __ZNSt3__117basic_string_viewIcNS_11char_traitsIcEEEC2B7v160006EPKcm, symObjAddr: 0x46A0, symBinAddr: 0x100008580, symSize: 0x50 }
  - { offsetInCU: 0x1F92F, offset: 0x1F92F, size: 0x8, addend: 0x0, symName: __ZNSt3__117basic_string_viewIcNS_11char_traitsIcEEEC2B7v160006EPKc, symObjAddr: 0x46F0, symBinAddr: 0x1000085D0, symSize: 0x44 }
  - { offsetInCU: 0x1F967, offset: 0x1F967, size: 0x8, addend: 0x0, symName: __ZN8LruCacheINSt3__112basic_stringIcNS0_11char_traitsIcEENS0_9allocatorIcEEEES6_ED2Ev, symObjAddr: 0x4758, symBinAddr: 0x100008638, symSize: 0x38 }
  - { offsetInCU: 0x1F992, offset: 0x1F992, size: 0x8, addend: 0x0, symName: __ZNSt3__14listINS_4pairINS_12basic_stringIcNS_11char_traitsIcEENS_9allocatorIcEEEES7_EENS5_IS8_EEED1Ev, symObjAddr: 0x4790, symBinAddr: 0x100008670, symSize: 0x2C }
  - { offsetInCU: 0x1F9BE, offset: 0x1F9BE, size: 0x8, addend: 0x0, symName: __ZNSt3__113unordered_mapINS_12basic_stringIcNS_11char_traitsIcEENS_9allocatorIcEEEENS_15__list_iteratorINS_4pairIS6_S6_EEPvEENS_4hashIS6_EENS_8equal_toIS6_EENS4_INS8_IKS6_SB_EEEEED1B7v160006Ev, symObjAddr: 0x47BC, symBinAddr: 0x10000869C, symSize: 0x2C }
  - { offsetInCU: 0x1F9E7, offset: 0x1F9E7, size: 0x8, addend: 0x0, symName: __ZNSt3__14listINS_4pairINS_12basic_stringIcNS_11char_traitsIcEENS_9allocatorIcEEEES7_EENS5_IS8_EEED2Ev, symObjAddr: 0x47E8, symBinAddr: 0x1000086C8, symSize: 0x2C }
  - { offsetInCU: 0x1FA13, offset: 0x1FA13, size: 0x8, addend: 0x0, symName: __ZNSt3__110__list_impINS_4pairINS_12basic_stringIcNS_11char_traitsIcEENS_9allocatorIcEEEES7_EENS5_IS8_EEED2Ev, symObjAddr: 0x4814, symBinAddr: 0x1000086F4, symSize: 0x3C }
  - { offsetInCU: 0x1FA3E, offset: 0x1FA3E, size: 0x8, addend: 0x0, symName: __ZNSt3__110__list_impINS_4pairINS_12basic_stringIcNS_11char_traitsIcEENS_9allocatorIcEEEES7_EENS5_IS8_EEE5clearEv, symObjAddr: 0x4850, symBinAddr: 0x100008730, symSize: 0xEC }
  - { offsetInCU: 0x1FAAE, offset: 0x1FAAE, size: 0x8, addend: 0x0, symName: __ZNKSt3__110__list_impINS_4pairINS_12basic_stringIcNS_11char_traitsIcEENS_9allocatorIcEEEES7_EENS5_IS8_EEE5emptyB7v160006Ev, symObjAddr: 0x494C, symBinAddr: 0x10000882C, symSize: 0x34 }
  - { offsetInCU: 0x1FAD2, offset: 0x1FAD2, size: 0x8, addend: 0x0, symName: __ZNSt3__110__list_impINS_4pairINS_12basic_stringIcNS_11char_traitsIcEENS_9allocatorIcEEEES7_EENS5_IS8_EEE12__node_allocB7v160006Ev, symObjAddr: 0x4980, symBinAddr: 0x100008860, symSize: 0x28 }
  - { offsetInCU: 0x1FAF6, offset: 0x1FAF6, size: 0x8, addend: 0x0, symName: __ZNKSt3__110__list_impINS_4pairINS_12basic_stringIcNS_11char_traitsIcEENS_9allocatorIcEEEES7_EENS5_IS8_EEE13__end_as_linkB7v160006Ev, symObjAddr: 0x49A8, symBinAddr: 0x100008888, symSize: 0x44 }
  - { offsetInCU: 0x1FB1B, offset: 0x1FB1B, size: 0x8, addend: 0x0, symName: __ZNSt3__110__list_impINS_4pairINS_12basic_stringIcNS_11char_traitsIcEENS_9allocatorIcEEEES7_EENS5_IS8_EEE14__unlink_nodesEPNS_16__list_node_baseIS8_PvEESE_, symObjAddr: 0x49EC, symBinAddr: 0x1000088CC, symSize: 0x3C }
  - { offsetInCU: 0x1FB4F, offset: 0x1FB4F, size: 0x8, addend: 0x0, symName: __ZNSt3__110__list_impINS_4pairINS_12basic_stringIcNS_11char_traitsIcEENS_9allocatorIcEEEES7_EENS5_IS8_EEE4__szB7v160006Ev, symObjAddr: 0x4A28, symBinAddr: 0x100008908, symSize: 0x28 }
  - { offsetInCU: 0x1FB73, offset: 0x1FB73, size: 0x8, addend: 0x0, symName: __ZNSt3__116__list_node_baseINS_4pairINS_12basic_stringIcNS_11char_traitsIcEENS_9allocatorIcEEEES7_EEPvE9__as_nodeB7v160006Ev, symObjAddr: 0x4A50, symBinAddr: 0x100008930, symSize: 0x24 }
  - { offsetInCU: 0x1FB98, offset: 0x1FB98, size: 0x8, addend: 0x0, symName: __ZNSt3__116allocator_traitsINS_9allocatorINS_11__list_nodeINS_4pairINS_12basic_stringIcNS_11char_traitsIcEENS1_IcEEEES8_EEPvEEEEE7destroyB7v160006IS9_vvEEvRSC_PT_, symObjAddr: 0x4A74, symBinAddr: 0x100008954, symSize: 0x28 }
  - { offsetInCU: 0x1FBD3, offset: 0x1FBD3, size: 0x8, addend: 0x0, symName: __ZNSt3__116allocator_traitsINS_9allocatorINS_11__list_nodeINS_4pairINS_12basic_stringIcNS_11char_traitsIcEENS1_IcEEEES8_EEPvEEEEE10deallocateB7v160006ERSC_PSB_m, symObjAddr: 0x4A9C, symBinAddr: 0x10000897C, symSize: 0x34 }
  - { offsetInCU: 0x1FC14, offset: 0x1FC14, size: 0x8, addend: 0x0, symName: __ZNKSt3__110__list_impINS_4pairINS_12basic_stringIcNS_11char_traitsIcEENS_9allocatorIcEEEES7_EENS5_IS8_EEE4__szB7v160006Ev, symObjAddr: 0x4AE0, symBinAddr: 0x1000089C0, symSize: 0x28 }
  - { offsetInCU: 0x1FC38, offset: 0x1FC38, size: 0x8, addend: 0x0, symName: __ZNKSt3__117__compressed_pairImNS_9allocatorINS_11__list_nodeINS_4pairINS_12basic_stringIcNS_11char_traitsIcEENS1_IcEEEES8_EEPvEEEEE5firstB7v160006Ev, symObjAddr: 0x4B08, symBinAddr: 0x1000089E8, symSize: 0x24 }
  - { offsetInCU: 0x1FC5C, offset: 0x1FC5C, size: 0x8, addend: 0x0, symName: __ZNSt3__117__compressed_pairImNS_9allocatorINS_11__list_nodeINS_4pairINS_12basic_stringIcNS_11char_traitsIcEENS1_IcEEEES8_EEPvEEEEE6secondB7v160006Ev, symObjAddr: 0x4B2C, symBinAddr: 0x100008A0C, symSize: 0x24 }
  - { offsetInCU: 0x1FC81, offset: 0x1FC81, size: 0x8, addend: 0x0, symName: __ZNSt3__122__compressed_pair_elemINS_9allocatorINS_11__list_nodeINS_4pairINS_12basic_stringIcNS_11char_traitsIcEENS1_IcEEEES8_EEPvEEEELi1ELb1EE5__getB7v160006Ev, symObjAddr: 0x4B50, symBinAddr: 0x100008A30, symSize: 0x14 }
  - { offsetInCU: 0x1FCA6, offset: 0x1FCA6, size: 0x8, addend: 0x0, symName: __ZNSt3__126__list_node_pointer_traitsINS_4pairINS_12basic_stringIcNS_11char_traitsIcEENS_9allocatorIcEEEES7_EEPvE26__unsafe_link_pointer_castB7v160006EPNS_16__list_node_baseIS8_S9_EE, symObjAddr: 0x4B64, symBinAddr: 0x100008A44, symSize: 0x14 }
  - { offsetInCU: 0x1FCC9, offset: 0x1FCC9, size: 0x8, addend: 0x0, symName: __ZNSt3__116__list_node_baseINS_4pairINS_12basic_stringIcNS_11char_traitsIcEENS_9allocatorIcEEEES7_EEPvE6__selfB7v160006Ev, symObjAddr: 0x4B78, symBinAddr: 0x100008A58, symSize: 0x24 }
  - { offsetInCU: 0x1FCF3, offset: 0x1FCF3, size: 0x8, addend: 0x0, symName: __ZNSt3__114pointer_traitsIPNS_16__list_node_baseINS_4pairINS_12basic_stringIcNS_11char_traitsIcEENS_9allocatorIcEEEES8_EEPvEEE10pointer_toB7v160006ERSB_, symObjAddr: 0x4B9C, symBinAddr: 0x100008A7C, symSize: 0x14 }
  - { offsetInCU: 0x1FD15, offset: 0x1FD15, size: 0x8, addend: 0x0, symName: __ZNSt3__117__compressed_pairImNS_9allocatorINS_11__list_nodeINS_4pairINS_12basic_stringIcNS_11char_traitsIcEENS1_IcEEEES8_EEPvEEEEE5firstB7v160006Ev, symObjAddr: 0x4BB0, symBinAddr: 0x100008A90, symSize: 0x24 }
  - { offsetInCU: 0x1FD3A, offset: 0x1FD3A, size: 0x8, addend: 0x0, symName: __ZNSt3__14pairINS_12basic_stringIcNS_11char_traitsIcEENS_9allocatorIcEEEES6_ED1Ev, symObjAddr: 0x4C1C, symBinAddr: 0x100008AFC, symSize: 0x2C }
  - { offsetInCU: 0x1FD65, offset: 0x1FD65, size: 0x8, addend: 0x0, symName: __ZNSt3__14pairINS_12basic_stringIcNS_11char_traitsIcEENS_9allocatorIcEEEES6_ED2Ev, symObjAddr: 0x4C48, symBinAddr: 0x100008B28, symSize: 0x38 }
  - { offsetInCU: 0x1FD8F, offset: 0x1FD8F, size: 0x8, addend: 0x0, symName: __ZNSt3__19allocatorINS_11__list_nodeINS_4pairINS_12basic_stringIcNS_11char_traitsIcEENS0_IcEEEES7_EEPvEEE10deallocateB7v160006EPSA_m, symObjAddr: 0x4C80, symBinAddr: 0x100008B60, symSize: 0x40 }
  - { offsetInCU: 0x1FDD0, offset: 0x1FDD0, size: 0x8, addend: 0x0, symName: __ZNSt3__113unordered_mapINS_12basic_stringIcNS_11char_traitsIcEENS_9allocatorIcEEEENS_15__list_iteratorINS_4pairIS6_S6_EEPvEENS_4hashIS6_EENS_8equal_toIS6_EENS4_INS8_IKS6_SB_EEEEED2B7v160006Ev, symObjAddr: 0x4CC0, symBinAddr: 0x100008BA0, symSize: 0x2C }
  - { offsetInCU: 0x1FDF9, offset: 0x1FDF9, size: 0x8, addend: 0x0, symName: __ZNSt3__112__hash_tableINS_17__hash_value_typeINS_12basic_stringIcNS_11char_traitsIcEENS_9allocatorIcEEEENS_15__list_iteratorINS_4pairIS7_S7_EEPvEEEENS_22__unordered_map_hasherIS7_SD_NS_4hashIS7_EENS_8equal_toIS7_EELb1EEENS_21__unordered_map_equalIS7_SD_SI_SG_Lb1EEENS5_ISD_EEED1Ev, symObjAddr: 0x4CEC, symBinAddr: 0x100008BCC, symSize: 0x2C }
  - { offsetInCU: 0x1FE24, offset: 0x1FE24, size: 0x8, addend: 0x0, symName: __ZNSt3__112__hash_tableINS_17__hash_value_typeINS_12basic_stringIcNS_11char_traitsIcEENS_9allocatorIcEEEENS_15__list_iteratorINS_4pairIS7_S7_EEPvEEEENS_22__unordered_map_hasherIS7_SD_NS_4hashIS7_EENS_8equal_toIS7_EELb1EEENS_21__unordered_map_equalIS7_SD_SI_SG_Lb1EEENS5_ISD_EEED2Ev, symObjAddr: 0x4D18, symBinAddr: 0x100008BF8, symSize: 0x58 }
  - { offsetInCU: 0x1FE4F, offset: 0x1FE4F, size: 0x8, addend: 0x0, symName: __ZNSt3__112__hash_tableINS_17__hash_value_typeINS_12basic_stringIcNS_11char_traitsIcEENS_9allocatorIcEEEENS_15__list_iteratorINS_4pairIS7_S7_EEPvEEEENS_22__unordered_map_hasherIS7_SD_NS_4hashIS7_EENS_8equal_toIS7_EELb1EEENS_21__unordered_map_equalIS7_SD_SI_SG_Lb1EEENS5_ISD_EEE17__deallocate_nodeEPNS_16__hash_node_baseIPNS_11__hash_nodeISD_SB_EEEE, symObjAddr: 0x4D70, symBinAddr: 0x100008C50, symSize: 0xA8 }
  - { offsetInCU: 0x1FEB8, offset: 0x1FEB8, size: 0x8, addend: 0x0, symName: __ZNSt3__117__compressed_pairINS_16__hash_node_baseIPNS_11__hash_nodeINS_17__hash_value_typeINS_12basic_stringIcNS_11char_traitsIcEENS_9allocatorIcEEEENS_15__list_iteratorINS_4pairIS9_S9_EEPvEEEESD_EEEENS7_ISG_EEE5firstB7v160006Ev, symObjAddr: 0x4E18, symBinAddr: 0x100008CF8, symSize: 0x24 }
  - { offsetInCU: 0x1FEDD, offset: 0x1FEDD, size: 0x8, addend: 0x0, symName: __ZNSt3__110unique_ptrIA_PNS_16__hash_node_baseIPNS_11__hash_nodeINS_17__hash_value_typeINS_12basic_stringIcNS_11char_traitsIcEENS_9allocatorIcEEEENS_15__list_iteratorINS_4pairIS9_S9_EEPvEEEESD_EEEENS_25__bucket_list_deallocatorINS7_ISJ_EEEEED1B7v160006Ev, symObjAddr: 0x4E4C, symBinAddr: 0x100008D2C, symSize: 0x2C }
  - { offsetInCU: 0x1FF05, offset: 0x1FF05, size: 0x8, addend: 0x0, symName: __ZNSt3__112__hash_tableINS_17__hash_value_typeINS_12basic_stringIcNS_11char_traitsIcEENS_9allocatorIcEEEENS_15__list_iteratorINS_4pairIS7_S7_EEPvEEEENS_22__unordered_map_hasherIS7_SD_NS_4hashIS7_EENS_8equal_toIS7_EELb1EEENS_21__unordered_map_equalIS7_SD_SI_SG_Lb1EEENS5_ISD_EEE12__node_allocB7v160006Ev, symObjAddr: 0x4E78, symBinAddr: 0x100008D58, symSize: 0x28 }
  - { offsetInCU: 0x1FF29, offset: 0x1FF29, size: 0x8, addend: 0x0, symName: __ZNSt3__116__hash_node_baseIPNS_11__hash_nodeINS_17__hash_value_typeINS_12basic_stringIcNS_11char_traitsIcEENS_9allocatorIcEEEENS_15__list_iteratorINS_4pairIS8_S8_EEPvEEEESC_EEE8__upcastB7v160006Ev, symObjAddr: 0x4EA0, symBinAddr: 0x100008D80, symSize: 0x24 }
  - { offsetInCU: 0x1FF4E, offset: 0x1FF4E, size: 0x8, addend: 0x0, symName: __ZNSt3__116allocator_traitsINS_9allocatorINS_11__hash_nodeINS_17__hash_value_typeINS_12basic_stringIcNS_11char_traitsIcEENS1_IcEEEENS_15__list_iteratorINS_4pairIS8_S8_EEPvEEEESC_EEEEE7destroyB7v160006INSA_IKS8_SD_EEvvEEvRSG_PT_, symObjAddr: 0x4EC4, symBinAddr: 0x100008DA4, symSize: 0x28 }
  - { offsetInCU: 0x1FF89, offset: 0x1FF89, size: 0x8, addend: 0x0, symName: __ZNSt3__122__hash_key_value_typesINS_17__hash_value_typeINS_12basic_stringIcNS_11char_traitsIcEENS_9allocatorIcEEEENS_15__list_iteratorINS_4pairIS7_S7_EEPvEEEEE9__get_ptrB7v160006ERSD_, symObjAddr: 0x4EEC, symBinAddr: 0x100008DCC, symSize: 0x24 }
  - { offsetInCU: 0x1FFAC, offset: 0x1FFAC, size: 0x8, addend: 0x0, symName: __ZNSt3__116allocator_traitsINS_9allocatorINS_11__hash_nodeINS_17__hash_value_typeINS_12basic_stringIcNS_11char_traitsIcEENS1_IcEEEENS_15__list_iteratorINS_4pairIS8_S8_EEPvEEEESC_EEEEE10deallocateB7v160006ERSG_PSF_m, symObjAddr: 0x4F10, symBinAddr: 0x100008DF0, symSize: 0x34 }
  - { offsetInCU: 0x1FFED, offset: 0x1FFED, size: 0x8, addend: 0x0, symName: __ZNSt3__117__compressed_pairINS_16__hash_node_baseIPNS_11__hash_nodeINS_17__hash_value_typeINS_12basic_stringIcNS_11char_traitsIcEENS_9allocatorIcEEEENS_15__list_iteratorINS_4pairIS9_S9_EEPvEEEESD_EEEENS7_ISG_EEE6secondB7v160006Ev, symObjAddr: 0x4F44, symBinAddr: 0x100008E24, symSize: 0x24 }
  - { offsetInCU: 0x20012, offset: 0x20012, size: 0x8, addend: 0x0, symName: __ZNSt3__122__compressed_pair_elemINS_9allocatorINS_11__hash_nodeINS_17__hash_value_typeINS_12basic_stringIcNS_11char_traitsIcEENS1_IcEEEENS_15__list_iteratorINS_4pairIS8_S8_EEPvEEEESC_EEEELi1ELb1EE5__getB7v160006Ev, symObjAddr: 0x4F68, symBinAddr: 0x100008E48, symSize: 0x14 }
  - { offsetInCU: 0x20037, offset: 0x20037, size: 0x8, addend: 0x0, symName: __ZNSt3__114pointer_traitsIPNS_16__hash_node_baseIPNS_11__hash_nodeINS_17__hash_value_typeINS_12basic_stringIcNS_11char_traitsIcEENS_9allocatorIcEEEENS_15__list_iteratorINS_4pairIS9_S9_EEPvEEEESD_EEEEE10pointer_toB7v160006ERSI_, symObjAddr: 0x4F7C, symBinAddr: 0x100008E5C, symSize: 0x14 }
  - { offsetInCU: 0x2005A, offset: 0x2005A, size: 0x8, addend: 0x0, symName: __ZNSt3__14pairIKNS_12basic_stringIcNS_11char_traitsIcEENS_9allocatorIcEEEENS_15__list_iteratorINS0_IS6_S6_EEPvEEED1Ev, symObjAddr: 0x4FD8, symBinAddr: 0x100008EB8, symSize: 0x2C }
  - { offsetInCU: 0x20085, offset: 0x20085, size: 0x8, addend: 0x0, symName: __ZNSt3__14pairIKNS_12basic_stringIcNS_11char_traitsIcEENS_9allocatorIcEEEENS_15__list_iteratorINS0_IS6_S6_EEPvEEED2Ev, symObjAddr: 0x5004, symBinAddr: 0x100008EE4, symSize: 0x2C }
  - { offsetInCU: 0x200AF, offset: 0x200AF, size: 0x8, addend: 0x0, symName: __ZNSt3__117__hash_value_typeINS_12basic_stringIcNS_11char_traitsIcEENS_9allocatorIcEEEENS_15__list_iteratorINS_4pairIS6_S6_EEPvEEE11__get_valueB7v160006Ev, symObjAddr: 0x5030, symBinAddr: 0x100008F10, symSize: 0x24 }
  - { offsetInCU: 0x200D3, offset: 0x200D3, size: 0x8, addend: 0x0, symName: __ZNSt3__19allocatorINS_11__hash_nodeINS_17__hash_value_typeINS_12basic_stringIcNS_11char_traitsIcEENS0_IcEEEENS_15__list_iteratorINS_4pairIS7_S7_EEPvEEEESB_EEE10deallocateB7v160006EPSE_m, symObjAddr: 0x508C, symBinAddr: 0x100008F6C, symSize: 0x44 }
  - { offsetInCU: 0x20114, offset: 0x20114, size: 0x8, addend: 0x0, symName: __ZNSt3__122__compressed_pair_elemINS_16__hash_node_baseIPNS_11__hash_nodeINS_17__hash_value_typeINS_12basic_stringIcNS_11char_traitsIcEENS_9allocatorIcEEEENS_15__list_iteratorINS_4pairIS9_S9_EEPvEEEESD_EEEELi0ELb0EE5__getB7v160006Ev, symObjAddr: 0x50D0, symBinAddr: 0x100008FB0, symSize: 0x14 }
  - { offsetInCU: 0x20139, offset: 0x20139, size: 0x8, addend: 0x0, symName: __ZNSt3__110unique_ptrIA_PNS_16__hash_node_baseIPNS_11__hash_nodeINS_17__hash_value_typeINS_12basic_stringIcNS_11char_traitsIcEENS_9allocatorIcEEEENS_15__list_iteratorINS_4pairIS9_S9_EEPvEEEESD_EEEENS_25__bucket_list_deallocatorINS7_ISJ_EEEEED2B7v160006Ev, symObjAddr: 0x50E4, symBinAddr: 0x100008FC4, symSize: 0x30 }
  - { offsetInCU: 0x20161, offset: 0x20161, size: 0x8, addend: 0x0, symName: __ZNSt3__110unique_ptrIA_PNS_16__hash_node_baseIPNS_11__hash_nodeINS_17__hash_value_typeINS_12basic_stringIcNS_11char_traitsIcEENS_9allocatorIcEEEENS_15__list_iteratorINS_4pairIS9_S9_EEPvEEEESD_EEEENS_25__bucket_list_deallocatorINS7_ISJ_EEEEE5resetB7v160006EDn, symObjAddr: 0x5114, symBinAddr: 0x100008FF4, symSize: 0x6C }
  - { offsetInCU: 0x201A0, offset: 0x201A0, size: 0x8, addend: 0x0, symName: __ZNSt3__117__compressed_pairIPPNS_16__hash_node_baseIPNS_11__hash_nodeINS_17__hash_value_typeINS_12basic_stringIcNS_11char_traitsIcEENS_9allocatorIcEEEENS_15__list_iteratorINS_4pairIS9_S9_EEPvEEEESD_EEEENS_25__bucket_list_deallocatorINS7_ISJ_EEEEE5firstB7v160006Ev, symObjAddr: 0x5180, symBinAddr: 0x100009060, symSize: 0x24 }
  - { offsetInCU: 0x201C4, offset: 0x201C4, size: 0x8, addend: 0x0, symName: __ZNSt3__117__compressed_pairIPPNS_16__hash_node_baseIPNS_11__hash_nodeINS_17__hash_value_typeINS_12basic_stringIcNS_11char_traitsIcEENS_9allocatorIcEEEENS_15__list_iteratorINS_4pairIS9_S9_EEPvEEEESD_EEEENS_25__bucket_list_deallocatorINS7_ISJ_EEEEE6secondB7v160006Ev, symObjAddr: 0x51A4, symBinAddr: 0x100009084, symSize: 0x28 }
  - { offsetInCU: 0x201E8, offset: 0x201E8, size: 0x8, addend: 0x0, symName: __ZNSt3__125__bucket_list_deallocatorINS_9allocatorIPNS_16__hash_node_baseIPNS_11__hash_nodeINS_17__hash_value_typeINS_12basic_stringIcNS_11char_traitsIcEENS1_IcEEEENS_15__list_iteratorINS_4pairIS9_S9_EEPvEEEESD_EEEEEEEclB7v160006EPSJ_, symObjAddr: 0x51CC, symBinAddr: 0x1000090AC, symSize: 0x58 }
  - { offsetInCU: 0x2021C, offset: 0x2021C, size: 0x8, addend: 0x0, symName: __ZNSt3__122__compressed_pair_elemIPPNS_16__hash_node_baseIPNS_11__hash_nodeINS_17__hash_value_typeINS_12basic_stringIcNS_11char_traitsIcEENS_9allocatorIcEEEENS_15__list_iteratorINS_4pairIS9_S9_EEPvEEEESD_EEEELi0ELb0EE5__getB7v160006Ev, symObjAddr: 0x5224, symBinAddr: 0x100009104, symSize: 0x14 }
  - { offsetInCU: 0x20241, offset: 0x20241, size: 0x8, addend: 0x0, symName: __ZNSt3__122__compressed_pair_elemINS_25__bucket_list_deallocatorINS_9allocatorIPNS_16__hash_node_baseIPNS_11__hash_nodeINS_17__hash_value_typeINS_12basic_stringIcNS_11char_traitsIcEENS2_IcEEEENS_15__list_iteratorINS_4pairISA_SA_EEPvEEEESE_EEEEEEEELi1ELb0EE5__getB7v160006Ev, symObjAddr: 0x5238, symBinAddr: 0x100009118, symSize: 0x14 }
  - { offsetInCU: 0x20266, offset: 0x20266, size: 0x8, addend: 0x0, symName: __ZNSt3__116allocator_traitsINS_9allocatorIPNS_16__hash_node_baseIPNS_11__hash_nodeINS_17__hash_value_typeINS_12basic_stringIcNS_11char_traitsIcEENS1_IcEEEENS_15__list_iteratorINS_4pairIS9_S9_EEPvEEEESD_EEEEEEE10deallocateB7v160006ERSK_PSJ_m, symObjAddr: 0x524C, symBinAddr: 0x10000912C, symSize: 0x34 }
  - { offsetInCU: 0x202A7, offset: 0x202A7, size: 0x8, addend: 0x0, symName: __ZNSt3__125__bucket_list_deallocatorINS_9allocatorIPNS_16__hash_node_baseIPNS_11__hash_nodeINS_17__hash_value_typeINS_12basic_stringIcNS_11char_traitsIcEENS1_IcEEEENS_15__list_iteratorINS_4pairIS9_S9_EEPvEEEESD_EEEEEEE7__allocB7v160006Ev, symObjAddr: 0x5280, symBinAddr: 0x100009160, symSize: 0x24 }
  - { offsetInCU: 0x202CB, offset: 0x202CB, size: 0x8, addend: 0x0, symName: __ZNSt3__125__bucket_list_deallocatorINS_9allocatorIPNS_16__hash_node_baseIPNS_11__hash_nodeINS_17__hash_value_typeINS_12basic_stringIcNS_11char_traitsIcEENS1_IcEEEENS_15__list_iteratorINS_4pairIS9_S9_EEPvEEEESD_EEEEEEE4sizeB7v160006Ev, symObjAddr: 0x52A4, symBinAddr: 0x100009184, symSize: 0x24 }
  - { offsetInCU: 0x202EF, offset: 0x202EF, size: 0x8, addend: 0x0, symName: __ZNSt3__19allocatorIPNS_16__hash_node_baseIPNS_11__hash_nodeINS_17__hash_value_typeINS_12basic_stringIcNS_11char_traitsIcEENS0_IcEEEENS_15__list_iteratorINS_4pairIS8_S8_EEPvEEEESC_EEEEE10deallocateB7v160006EPSI_m, symObjAddr: 0x52C8, symBinAddr: 0x1000091A8, symSize: 0x40 }
  - { offsetInCU: 0x2032F, offset: 0x2032F, size: 0x8, addend: 0x0, symName: __ZNSt3__117__compressed_pairImNS_9allocatorIPNS_16__hash_node_baseIPNS_11__hash_nodeINS_17__hash_value_typeINS_12basic_stringIcNS_11char_traitsIcEENS1_IcEEEENS_15__list_iteratorINS_4pairIS9_S9_EEPvEEEESD_EEEEEEE6secondB7v160006Ev, symObjAddr: 0x5308, symBinAddr: 0x1000091E8, symSize: 0x24 }
  - { offsetInCU: 0x20354, offset: 0x20354, size: 0x8, addend: 0x0, symName: __ZNSt3__122__compressed_pair_elemINS_9allocatorIPNS_16__hash_node_baseIPNS_11__hash_nodeINS_17__hash_value_typeINS_12basic_stringIcNS_11char_traitsIcEENS1_IcEEEENS_15__list_iteratorINS_4pairIS9_S9_EEPvEEEESD_EEEEEELi1ELb1EE5__getB7v160006Ev, symObjAddr: 0x532C, symBinAddr: 0x10000920C, symSize: 0x14 }
  - { offsetInCU: 0x20378, offset: 0x20378, size: 0x8, addend: 0x0, symName: __ZNSt3__117__compressed_pairImNS_9allocatorIPNS_16__hash_node_baseIPNS_11__hash_nodeINS_17__hash_value_typeINS_12basic_stringIcNS_11char_traitsIcEENS1_IcEEEENS_15__list_iteratorINS_4pairIS9_S9_EEPvEEEESD_EEEEEEE5firstB7v160006Ev, symObjAddr: 0x5340, symBinAddr: 0x100009220, symSize: 0x24 }
  - { offsetInCU: 0x2039D, offset: 0x2039D, size: 0x8, addend: 0x0, symName: __ZN8LruCacheIiNSt3__112basic_stringIcNS0_11char_traitsIcEENS0_9allocatorIcEEEEED2Ev, symObjAddr: 0x5364, symBinAddr: 0x100009244, symSize: 0x38 }
  - { offsetInCU: 0x203C8, offset: 0x203C8, size: 0x8, addend: 0x0, symName: __ZNSt3__14listINS_4pairIiNS_12basic_stringIcNS_11char_traitsIcEENS_9allocatorIcEEEEEENS5_IS8_EEED1Ev, symObjAddr: 0x539C, symBinAddr: 0x10000927C, symSize: 0x2C }
  - { offsetInCU: 0x203F4, offset: 0x203F4, size: 0x8, addend: 0x0, symName: __ZNSt3__113unordered_mapIiNS_15__list_iteratorINS_4pairIiNS_12basic_stringIcNS_11char_traitsIcEENS_9allocatorIcEEEEEEPvEENS_4hashIiEENS_8equal_toIiEENS6_INS2_IKiSB_EEEEED1B7v160006Ev, symObjAddr: 0x53C8, symBinAddr: 0x1000092A8, symSize: 0x2C }
  - { offsetInCU: 0x2041D, offset: 0x2041D, size: 0x8, addend: 0x0, symName: __ZNSt3__14listINS_4pairIiNS_12basic_stringIcNS_11char_traitsIcEENS_9allocatorIcEEEEEENS5_IS8_EEED2Ev, symObjAddr: 0x53F4, symBinAddr: 0x1000092D4, symSize: 0x2C }
  - { offsetInCU: 0x20449, offset: 0x20449, size: 0x8, addend: 0x0, symName: __ZNSt3__110__list_impINS_4pairIiNS_12basic_stringIcNS_11char_traitsIcEENS_9allocatorIcEEEEEENS5_IS8_EEED2Ev, symObjAddr: 0x5420, symBinAddr: 0x100009300, symSize: 0x3C }
  - { offsetInCU: 0x20474, offset: 0x20474, size: 0x8, addend: 0x0, symName: __ZNSt3__110__list_impINS_4pairIiNS_12basic_stringIcNS_11char_traitsIcEENS_9allocatorIcEEEEEENS5_IS8_EEE5clearEv, symObjAddr: 0x545C, symBinAddr: 0x10000933C, symSize: 0xEC }
  - { offsetInCU: 0x204E4, offset: 0x204E4, size: 0x8, addend: 0x0, symName: __ZNKSt3__110__list_impINS_4pairIiNS_12basic_stringIcNS_11char_traitsIcEENS_9allocatorIcEEEEEENS5_IS8_EEE5emptyB7v160006Ev, symObjAddr: 0x5558, symBinAddr: 0x100009438, symSize: 0x34 }
  - { offsetInCU: 0x20508, offset: 0x20508, size: 0x8, addend: 0x0, symName: __ZNSt3__110__list_impINS_4pairIiNS_12basic_stringIcNS_11char_traitsIcEENS_9allocatorIcEEEEEENS5_IS8_EEE12__node_allocB7v160006Ev, symObjAddr: 0x558C, symBinAddr: 0x10000946C, symSize: 0x28 }
  - { offsetInCU: 0x2052C, offset: 0x2052C, size: 0x8, addend: 0x0, symName: __ZNKSt3__110__list_impINS_4pairIiNS_12basic_stringIcNS_11char_traitsIcEENS_9allocatorIcEEEEEENS5_IS8_EEE13__end_as_linkB7v160006Ev, symObjAddr: 0x55B4, symBinAddr: 0x100009494, symSize: 0x44 }
  - { offsetInCU: 0x20551, offset: 0x20551, size: 0x8, addend: 0x0, symName: __ZNSt3__110__list_impINS_4pairIiNS_12basic_stringIcNS_11char_traitsIcEENS_9allocatorIcEEEEEENS5_IS8_EEE14__unlink_nodesEPNS_16__list_node_baseIS8_PvEESE_, symObjAddr: 0x55F8, symBinAddr: 0x1000094D8, symSize: 0x3C }
  - { offsetInCU: 0x20585, offset: 0x20585, size: 0x8, addend: 0x0, symName: __ZNSt3__110__list_impINS_4pairIiNS_12basic_stringIcNS_11char_traitsIcEENS_9allocatorIcEEEEEENS5_IS8_EEE4__szB7v160006Ev, symObjAddr: 0x5634, symBinAddr: 0x100009514, symSize: 0x28 }
  - { offsetInCU: 0x205A9, offset: 0x205A9, size: 0x8, addend: 0x0, symName: __ZNSt3__116__list_node_baseINS_4pairIiNS_12basic_stringIcNS_11char_traitsIcEENS_9allocatorIcEEEEEEPvE9__as_nodeB7v160006Ev, symObjAddr: 0x565C, symBinAddr: 0x10000953C, symSize: 0x24 }
  - { offsetInCU: 0x205CE, offset: 0x205CE, size: 0x8, addend: 0x0, symName: __ZNSt3__116allocator_traitsINS_9allocatorINS_11__list_nodeINS_4pairIiNS_12basic_stringIcNS_11char_traitsIcEENS1_IcEEEEEEPvEEEEE7destroyB7v160006IS9_vvEEvRSC_PT_, symObjAddr: 0x5680, symBinAddr: 0x100009560, symSize: 0x28 }
  - { offsetInCU: 0x20609, offset: 0x20609, size: 0x8, addend: 0x0, symName: __ZNSt3__116allocator_traitsINS_9allocatorINS_11__list_nodeINS_4pairIiNS_12basic_stringIcNS_11char_traitsIcEENS1_IcEEEEEEPvEEEEE10deallocateB7v160006ERSC_PSB_m, symObjAddr: 0x56A8, symBinAddr: 0x100009588, symSize: 0x34 }
  - { offsetInCU: 0x2064A, offset: 0x2064A, size: 0x8, addend: 0x0, symName: __ZNKSt3__110__list_impINS_4pairIiNS_12basic_stringIcNS_11char_traitsIcEENS_9allocatorIcEEEEEENS5_IS8_EEE4__szB7v160006Ev, symObjAddr: 0x56EC, symBinAddr: 0x1000095CC, symSize: 0x28 }
  - { offsetInCU: 0x2066E, offset: 0x2066E, size: 0x8, addend: 0x0, symName: __ZNKSt3__117__compressed_pairImNS_9allocatorINS_11__list_nodeINS_4pairIiNS_12basic_stringIcNS_11char_traitsIcEENS1_IcEEEEEEPvEEEEE5firstB7v160006Ev, symObjAddr: 0x5714, symBinAddr: 0x1000095F4, symSize: 0x24 }
  - { offsetInCU: 0x20692, offset: 0x20692, size: 0x8, addend: 0x0, symName: __ZNSt3__117__compressed_pairImNS_9allocatorINS_11__list_nodeINS_4pairIiNS_12basic_stringIcNS_11char_traitsIcEENS1_IcEEEEEEPvEEEEE6secondB7v160006Ev, symObjAddr: 0x5738, symBinAddr: 0x100009618, symSize: 0x24 }
  - { offsetInCU: 0x206B7, offset: 0x206B7, size: 0x8, addend: 0x0, symName: __ZNSt3__122__compressed_pair_elemINS_9allocatorINS_11__list_nodeINS_4pairIiNS_12basic_stringIcNS_11char_traitsIcEENS1_IcEEEEEEPvEEEELi1ELb1EE5__getB7v160006Ev, symObjAddr: 0x575C, symBinAddr: 0x10000963C, symSize: 0x14 }
  - { offsetInCU: 0x206DC, offset: 0x206DC, size: 0x8, addend: 0x0, symName: __ZNSt3__126__list_node_pointer_traitsINS_4pairIiNS_12basic_stringIcNS_11char_traitsIcEENS_9allocatorIcEEEEEEPvE26__unsafe_link_pointer_castB7v160006EPNS_16__list_node_baseIS8_S9_EE, symObjAddr: 0x5770, symBinAddr: 0x100009650, symSize: 0x14 }
  - { offsetInCU: 0x206FF, offset: 0x206FF, size: 0x8, addend: 0x0, symName: __ZNSt3__116__list_node_baseINS_4pairIiNS_12basic_stringIcNS_11char_traitsIcEENS_9allocatorIcEEEEEEPvE6__selfB7v160006Ev, symObjAddr: 0x5784, symBinAddr: 0x100009664, symSize: 0x24 }
  - { offsetInCU: 0x20729, offset: 0x20729, size: 0x8, addend: 0x0, symName: __ZNSt3__114pointer_traitsIPNS_16__list_node_baseINS_4pairIiNS_12basic_stringIcNS_11char_traitsIcEENS_9allocatorIcEEEEEEPvEEE10pointer_toB7v160006ERSB_, symObjAddr: 0x57A8, symBinAddr: 0x100009688, symSize: 0x14 }
  - { offsetInCU: 0x2074B, offset: 0x2074B, size: 0x8, addend: 0x0, symName: __ZNSt3__117__compressed_pairImNS_9allocatorINS_11__list_nodeINS_4pairIiNS_12basic_stringIcNS_11char_traitsIcEENS1_IcEEEEEEPvEEEEE5firstB7v160006Ev, symObjAddr: 0x57BC, symBinAddr: 0x10000969C, symSize: 0x24 }
  - { offsetInCU: 0x20770, offset: 0x20770, size: 0x8, addend: 0x0, symName: __ZNSt3__14pairIiNS_12basic_stringIcNS_11char_traitsIcEENS_9allocatorIcEEEEED1Ev, symObjAddr: 0x5828, symBinAddr: 0x100009708, symSize: 0x2C }
  - { offsetInCU: 0x2079B, offset: 0x2079B, size: 0x8, addend: 0x0, symName: __ZNSt3__14pairIiNS_12basic_stringIcNS_11char_traitsIcEENS_9allocatorIcEEEEED2Ev, symObjAddr: 0x5854, symBinAddr: 0x100009734, symSize: 0x30 }
  - { offsetInCU: 0x207C5, offset: 0x207C5, size: 0x8, addend: 0x0, symName: __ZNSt3__19allocatorINS_11__list_nodeINS_4pairIiNS_12basic_stringIcNS_11char_traitsIcEENS0_IcEEEEEEPvEEE10deallocateB7v160006EPSA_m, symObjAddr: 0x5884, symBinAddr: 0x100009764, symSize: 0x44 }
  - { offsetInCU: 0x20806, offset: 0x20806, size: 0x8, addend: 0x0, symName: __ZNSt3__113unordered_mapIiNS_15__list_iteratorINS_4pairIiNS_12basic_stringIcNS_11char_traitsIcEENS_9allocatorIcEEEEEEPvEENS_4hashIiEENS_8equal_toIiEENS6_INS2_IKiSB_EEEEED2B7v160006Ev, symObjAddr: 0x58C8, symBinAddr: 0x1000097A8, symSize: 0x2C }
  - { offsetInCU: 0x2082F, offset: 0x2082F, size: 0x8, addend: 0x0, symName: __ZNSt3__112__hash_tableINS_17__hash_value_typeIiNS_15__list_iteratorINS_4pairIiNS_12basic_stringIcNS_11char_traitsIcEENS_9allocatorIcEEEEEEPvEEEENS_22__unordered_map_hasherIiSD_NS_4hashIiEENS_8equal_toIiEELb1EEENS_21__unordered_map_equalIiSD_SI_SG_Lb1EEENS7_ISD_EEED1Ev, symObjAddr: 0x58F4, symBinAddr: 0x1000097D4, symSize: 0x2C }
  - { offsetInCU: 0x2085A, offset: 0x2085A, size: 0x8, addend: 0x0, symName: __ZNSt3__112__hash_tableINS_17__hash_value_typeIiNS_15__list_iteratorINS_4pairIiNS_12basic_stringIcNS_11char_traitsIcEENS_9allocatorIcEEEEEEPvEEEENS_22__unordered_map_hasherIiSD_NS_4hashIiEENS_8equal_toIiEELb1EEENS_21__unordered_map_equalIiSD_SI_SG_Lb1EEENS7_ISD_EEED2Ev, symObjAddr: 0x5920, symBinAddr: 0x100009800, symSize: 0x58 }
  - { offsetInCU: 0x20885, offset: 0x20885, size: 0x8, addend: 0x0, symName: __ZNSt3__112__hash_tableINS_17__hash_value_typeIiNS_15__list_iteratorINS_4pairIiNS_12basic_stringIcNS_11char_traitsIcEENS_9allocatorIcEEEEEEPvEEEENS_22__unordered_map_hasherIiSD_NS_4hashIiEENS_8equal_toIiEELb1EEENS_21__unordered_map_equalIiSD_SI_SG_Lb1EEENS7_ISD_EEE17__deallocate_nodeEPNS_16__hash_node_baseIPNS_11__hash_nodeISD_SB_EEEE, symObjAddr: 0x5978, symBinAddr: 0x100009858, symSize: 0xA8 }
  - { offsetInCU: 0x208EE, offset: 0x208EE, size: 0x8, addend: 0x0, symName: __ZNSt3__117__compressed_pairINS_16__hash_node_baseIPNS_11__hash_nodeINS_17__hash_value_typeIiNS_15__list_iteratorINS_4pairIiNS_12basic_stringIcNS_11char_traitsIcEENS_9allocatorIcEEEEEEPvEEEESD_EEEENS9_ISG_EEE5firstB7v160006Ev, symObjAddr: 0x5A20, symBinAddr: 0x100009900, symSize: 0x24 }
  - { offsetInCU: 0x20913, offset: 0x20913, size: 0x8, addend: 0x0, symName: __ZNSt3__110unique_ptrIA_PNS_16__hash_node_baseIPNS_11__hash_nodeINS_17__hash_value_typeIiNS_15__list_iteratorINS_4pairIiNS_12basic_stringIcNS_11char_traitsIcEENS_9allocatorIcEEEEEEPvEEEESD_EEEENS_25__bucket_list_deallocatorINS9_ISJ_EEEEED1B7v160006Ev, symObjAddr: 0x5A54, symBinAddr: 0x100009934, symSize: 0x2C }
  - { offsetInCU: 0x2093B, offset: 0x2093B, size: 0x8, addend: 0x0, symName: __ZNSt3__112__hash_tableINS_17__hash_value_typeIiNS_15__list_iteratorINS_4pairIiNS_12basic_stringIcNS_11char_traitsIcEENS_9allocatorIcEEEEEEPvEEEENS_22__unordered_map_hasherIiSD_NS_4hashIiEENS_8equal_toIiEELb1EEENS_21__unordered_map_equalIiSD_SI_SG_Lb1EEENS7_ISD_EEE12__node_allocB7v160006Ev, symObjAddr: 0x5A80, symBinAddr: 0x100009960, symSize: 0x28 }
  - { offsetInCU: 0x2095F, offset: 0x2095F, size: 0x8, addend: 0x0, symName: __ZNSt3__116__hash_node_baseIPNS_11__hash_nodeINS_17__hash_value_typeIiNS_15__list_iteratorINS_4pairIiNS_12basic_stringIcNS_11char_traitsIcEENS_9allocatorIcEEEEEEPvEEEESC_EEE8__upcastB7v160006Ev, symObjAddr: 0x5AA8, symBinAddr: 0x100009988, symSize: 0x24 }
  - { offsetInCU: 0x20984, offset: 0x20984, size: 0x8, addend: 0x0, symName: __ZNSt3__116allocator_traitsINS_9allocatorINS_11__hash_nodeINS_17__hash_value_typeIiNS_15__list_iteratorINS_4pairIiNS_12basic_stringIcNS_11char_traitsIcEENS1_IcEEEEEEPvEEEESC_EEEEE7destroyB7v160006INS5_IKiSD_EEvvEEvRSG_PT_, symObjAddr: 0x5ACC, symBinAddr: 0x1000099AC, symSize: 0x28 }
  - { offsetInCU: 0x209BF, offset: 0x209BF, size: 0x8, addend: 0x0, symName: __ZNSt3__122__hash_key_value_typesINS_17__hash_value_typeIiNS_15__list_iteratorINS_4pairIiNS_12basic_stringIcNS_11char_traitsIcEENS_9allocatorIcEEEEEEPvEEEEE9__get_ptrB7v160006ERSD_, symObjAddr: 0x5AF4, symBinAddr: 0x1000099D4, symSize: 0x24 }
  - { offsetInCU: 0x209E2, offset: 0x209E2, size: 0x8, addend: 0x0, symName: __ZNSt3__116allocator_traitsINS_9allocatorINS_11__hash_nodeINS_17__hash_value_typeIiNS_15__list_iteratorINS_4pairIiNS_12basic_stringIcNS_11char_traitsIcEENS1_IcEEEEEEPvEEEESC_EEEEE10deallocateB7v160006ERSG_PSF_m, symObjAddr: 0x5B18, symBinAddr: 0x1000099F8, symSize: 0x34 }
  - { offsetInCU: 0x20A23, offset: 0x20A23, size: 0x8, addend: 0x0, symName: __ZNSt3__117__compressed_pairINS_16__hash_node_baseIPNS_11__hash_nodeINS_17__hash_value_typeIiNS_15__list_iteratorINS_4pairIiNS_12basic_stringIcNS_11char_traitsIcEENS_9allocatorIcEEEEEEPvEEEESD_EEEENS9_ISG_EEE6secondB7v160006Ev, symObjAddr: 0x5B4C, symBinAddr: 0x100009A2C, symSize: 0x24 }
  - { offsetInCU: 0x20A48, offset: 0x20A48, size: 0x8, addend: 0x0, symName: __ZNSt3__122__compressed_pair_elemINS_9allocatorINS_11__hash_nodeINS_17__hash_value_typeIiNS_15__list_iteratorINS_4pairIiNS_12basic_stringIcNS_11char_traitsIcEENS1_IcEEEEEEPvEEEESC_EEEELi1ELb1EE5__getB7v160006Ev, symObjAddr: 0x5B70, symBinAddr: 0x100009A50, symSize: 0x14 }
  - { offsetInCU: 0x20A6D, offset: 0x20A6D, size: 0x8, addend: 0x0, symName: __ZNSt3__114pointer_traitsIPNS_16__hash_node_baseIPNS_11__hash_nodeINS_17__hash_value_typeIiNS_15__list_iteratorINS_4pairIiNS_12basic_stringIcNS_11char_traitsIcEENS_9allocatorIcEEEEEEPvEEEESD_EEEEE10pointer_toB7v160006ERSI_, symObjAddr: 0x5B84, symBinAddr: 0x100009A64, symSize: 0x14 }
  - { offsetInCU: 0x20A8F, offset: 0x20A8F, size: 0x8, addend: 0x0, symName: __ZNSt3__117__hash_value_typeIiNS_15__list_iteratorINS_4pairIiNS_12basic_stringIcNS_11char_traitsIcEENS_9allocatorIcEEEEEEPvEEE11__get_valueB7v160006Ev, symObjAddr: 0x5BCC, symBinAddr: 0x100009AAC, symSize: 0x24 }
  - { offsetInCU: 0x20AB3, offset: 0x20AB3, size: 0x8, addend: 0x0, symName: __ZNSt3__19allocatorINS_11__hash_nodeINS_17__hash_value_typeIiNS_15__list_iteratorINS_4pairIiNS_12basic_stringIcNS_11char_traitsIcEENS0_IcEEEEEEPvEEEESB_EEE10deallocateB7v160006EPSE_m, symObjAddr: 0x5C28, symBinAddr: 0x100009B08, symSize: 0x40 }
  - { offsetInCU: 0x20AF4, offset: 0x20AF4, size: 0x8, addend: 0x0, symName: __ZNSt3__122__compressed_pair_elemINS_16__hash_node_baseIPNS_11__hash_nodeINS_17__hash_value_typeIiNS_15__list_iteratorINS_4pairIiNS_12basic_stringIcNS_11char_traitsIcEENS_9allocatorIcEEEEEEPvEEEESD_EEEELi0ELb0EE5__getB7v160006Ev, symObjAddr: 0x5C68, symBinAddr: 0x100009B48, symSize: 0x14 }
  - { offsetInCU: 0x20B19, offset: 0x20B19, size: 0x8, addend: 0x0, symName: __ZNSt3__110unique_ptrIA_PNS_16__hash_node_baseIPNS_11__hash_nodeINS_17__hash_value_typeIiNS_15__list_iteratorINS_4pairIiNS_12basic_stringIcNS_11char_traitsIcEENS_9allocatorIcEEEEEEPvEEEESD_EEEENS_25__bucket_list_deallocatorINS9_ISJ_EEEEED2B7v160006Ev, symObjAddr: 0x5C7C, symBinAddr: 0x100009B5C, symSize: 0x30 }
  - { offsetInCU: 0x20B41, offset: 0x20B41, size: 0x8, addend: 0x0, symName: __ZNSt3__110unique_ptrIA_PNS_16__hash_node_baseIPNS_11__hash_nodeINS_17__hash_value_typeIiNS_15__list_iteratorINS_4pairIiNS_12basic_stringIcNS_11char_traitsIcEENS_9allocatorIcEEEEEEPvEEEESD_EEEENS_25__bucket_list_deallocatorINS9_ISJ_EEEEE5resetB7v160006EDn, symObjAddr: 0x5CAC, symBinAddr: 0x100009B8C, symSize: 0x6C }
  - { offsetInCU: 0x20B80, offset: 0x20B80, size: 0x8, addend: 0x0, symName: __ZNSt3__117__compressed_pairIPPNS_16__hash_node_baseIPNS_11__hash_nodeINS_17__hash_value_typeIiNS_15__list_iteratorINS_4pairIiNS_12basic_stringIcNS_11char_traitsIcEENS_9allocatorIcEEEEEEPvEEEESD_EEEENS_25__bucket_list_deallocatorINS9_ISJ_EEEEE5firstB7v160006Ev, symObjAddr: 0x5D18, symBinAddr: 0x100009BF8, symSize: 0x24 }
  - { offsetInCU: 0x20BA4, offset: 0x20BA4, size: 0x8, addend: 0x0, symName: __ZNSt3__117__compressed_pairIPPNS_16__hash_node_baseIPNS_11__hash_nodeINS_17__hash_value_typeIiNS_15__list_iteratorINS_4pairIiNS_12basic_stringIcNS_11char_traitsIcEENS_9allocatorIcEEEEEEPvEEEESD_EEEENS_25__bucket_list_deallocatorINS9_ISJ_EEEEE6secondB7v160006Ev, symObjAddr: 0x5D3C, symBinAddr: 0x100009C1C, symSize: 0x28 }
  - { offsetInCU: 0x20BC8, offset: 0x20BC8, size: 0x8, addend: 0x0, symName: __ZNSt3__125__bucket_list_deallocatorINS_9allocatorIPNS_16__hash_node_baseIPNS_11__hash_nodeINS_17__hash_value_typeIiNS_15__list_iteratorINS_4pairIiNS_12basic_stringIcNS_11char_traitsIcEENS1_IcEEEEEEPvEEEESD_EEEEEEEclB7v160006EPSJ_, symObjAddr: 0x5D64, symBinAddr: 0x100009C44, symSize: 0x58 }
  - { offsetInCU: 0x20BFC, offset: 0x20BFC, size: 0x8, addend: 0x0, symName: __ZNSt3__122__compressed_pair_elemIPPNS_16__hash_node_baseIPNS_11__hash_nodeINS_17__hash_value_typeIiNS_15__list_iteratorINS_4pairIiNS_12basic_stringIcNS_11char_traitsIcEENS_9allocatorIcEEEEEEPvEEEESD_EEEELi0ELb0EE5__getB7v160006Ev, symObjAddr: 0x5DBC, symBinAddr: 0x100009C9C, symSize: 0x14 }
  - { offsetInCU: 0x20C21, offset: 0x20C21, size: 0x8, addend: 0x0, symName: __ZNSt3__122__compressed_pair_elemINS_25__bucket_list_deallocatorINS_9allocatorIPNS_16__hash_node_baseIPNS_11__hash_nodeINS_17__hash_value_typeIiNS_15__list_iteratorINS_4pairIiNS_12basic_stringIcNS_11char_traitsIcEENS2_IcEEEEEEPvEEEESE_EEEEEEEELi1ELb0EE5__getB7v160006Ev, symObjAddr: 0x5DD0, symBinAddr: 0x100009CB0, symSize: 0x14 }
  - { offsetInCU: 0x20C46, offset: 0x20C46, size: 0x8, addend: 0x0, symName: __ZNSt3__116allocator_traitsINS_9allocatorIPNS_16__hash_node_baseIPNS_11__hash_nodeINS_17__hash_value_typeIiNS_15__list_iteratorINS_4pairIiNS_12basic_stringIcNS_11char_traitsIcEENS1_IcEEEEEEPvEEEESD_EEEEEEE10deallocateB7v160006ERSK_PSJ_m, symObjAddr: 0x5DE4, symBinAddr: 0x100009CC4, symSize: 0x34 }
  - { offsetInCU: 0x20C87, offset: 0x20C87, size: 0x8, addend: 0x0, symName: __ZNSt3__125__bucket_list_deallocatorINS_9allocatorIPNS_16__hash_node_baseIPNS_11__hash_nodeINS_17__hash_value_typeIiNS_15__list_iteratorINS_4pairIiNS_12basic_stringIcNS_11char_traitsIcEENS1_IcEEEEEEPvEEEESD_EEEEEEE7__allocB7v160006Ev, symObjAddr: 0x5E18, symBinAddr: 0x100009CF8, symSize: 0x24 }
  - { offsetInCU: 0x20CAB, offset: 0x20CAB, size: 0x8, addend: 0x0, symName: __ZNSt3__125__bucket_list_deallocatorINS_9allocatorIPNS_16__hash_node_baseIPNS_11__hash_nodeINS_17__hash_value_typeIiNS_15__list_iteratorINS_4pairIiNS_12basic_stringIcNS_11char_traitsIcEENS1_IcEEEEEEPvEEEESD_EEEEEEE4sizeB7v160006Ev, symObjAddr: 0x5E3C, symBinAddr: 0x100009D1C, symSize: 0x24 }
  - { offsetInCU: 0x20CCF, offset: 0x20CCF, size: 0x8, addend: 0x0, symName: __ZNSt3__19allocatorIPNS_16__hash_node_baseIPNS_11__hash_nodeINS_17__hash_value_typeIiNS_15__list_iteratorINS_4pairIiNS_12basic_stringIcNS_11char_traitsIcEENS0_IcEEEEEEPvEEEESC_EEEEE10deallocateB7v160006EPSI_m, symObjAddr: 0x5E60, symBinAddr: 0x100009D40, symSize: 0x40 }
  - { offsetInCU: 0x20D0F, offset: 0x20D0F, size: 0x8, addend: 0x0, symName: __ZNSt3__117__compressed_pairImNS_9allocatorIPNS_16__hash_node_baseIPNS_11__hash_nodeINS_17__hash_value_typeIiNS_15__list_iteratorINS_4pairIiNS_12basic_stringIcNS_11char_traitsIcEENS1_IcEEEEEEPvEEEESD_EEEEEEE6secondB7v160006Ev, symObjAddr: 0x5EA0, symBinAddr: 0x100009D80, symSize: 0x24 }
  - { offsetInCU: 0x20D34, offset: 0x20D34, size: 0x8, addend: 0x0, symName: __ZNSt3__122__compressed_pair_elemINS_9allocatorIPNS_16__hash_node_baseIPNS_11__hash_nodeINS_17__hash_value_typeIiNS_15__list_iteratorINS_4pairIiNS_12basic_stringIcNS_11char_traitsIcEENS1_IcEEEEEEPvEEEESD_EEEEEELi1ELb1EE5__getB7v160006Ev, symObjAddr: 0x5EC4, symBinAddr: 0x100009DA4, symSize: 0x14 }
  - { offsetInCU: 0x20D58, offset: 0x20D58, size: 0x8, addend: 0x0, symName: __ZNSt3__117__compressed_pairImNS_9allocatorIPNS_16__hash_node_baseIPNS_11__hash_nodeINS_17__hash_value_typeIiNS_15__list_iteratorINS_4pairIiNS_12basic_stringIcNS_11char_traitsIcEENS1_IcEEEEEEPvEEEESD_EEEEEEE5firstB7v160006Ev, symObjAddr: 0x5ED8, symBinAddr: 0x100009DB8, symSize: 0x24 }
  - { offsetInCU: 0x20D9B, offset: 0x20D9B, size: 0x8, addend: 0x0, symName: __ZNKSt3__16chrono10time_pointINS0_12steady_clockENS0_8durationIxNS_5ratioILl1ELl1000000000EEEEEE16time_since_epochB7v160006Ev, symObjAddr: 0x5F6C, symBinAddr: 0x100009E4C, symSize: 0x20 }
  - { offsetInCU: 0x20DC0, offset: 0x20DC0, size: 0x8, addend: 0x0, symName: __ZNKSt3__16chrono8durationIxNS_5ratioILl1ELl1000000000EEEE5countB7v160006Ev, symObjAddr: 0x5F8C, symBinAddr: 0x100009E6C, symSize: 0x18 }
  - { offsetInCU: 0x20DEF, offset: 0x20DEF, size: 0x8, addend: 0x0, symName: __ZNSt3__16chrono8durationIxNS_5ratioILl1ELl1000000000EEEEC1B7v160006IxEERKT_PNS_9enable_ifIXaasr14is_convertibleIS8_xEE5valueooL_ZNS_17integral_constantIbLb0EE5valueEEntsr23treat_as_floating_pointIS6_EE5valueEvE4typeE, symObjAddr: 0x5FA4, symBinAddr: 0x100009E84, symSize: 0x3C }
  - { offsetInCU: 0x20E3B, offset: 0x20E3B, size: 0x8, addend: 0x0, symName: __ZNSt3__16chrono8durationIxNS_5ratioILl1ELl1000000000EEEEC2B7v160006IxEERKT_PNS_9enable_ifIXaasr14is_convertibleIS8_xEE5valueooL_ZNS_17integral_constantIbLb0EE5valueEEntsr23treat_as_floating_pointIS6_EE5valueEvE4typeE, symObjAddr: 0x5FE0, symBinAddr: 0x100009EC0, symSize: 0x28 }
  - { offsetInCU: 0x20E87, offset: 0x20E87, size: 0x8, addend: 0x0, symName: __ZNSt3__16chrono8durationIdNS_5ratioILl1ELl1EEEEC2B7v160006IxNS2_ILl1ELl1000000000EEEEERKNS1_IT_T0_EEPNS_9enable_ifIXaasr13__no_overflowIS8_S3_EE5valueooL_ZNS_17integral_constantIbLb1EE5valueEEaaeqsr13__no_overflowIS8_S3_E4typeE3denLi1Entsr23treat_as_floating_pointIS7_EE5valueEvE4typeE, symObjAddr: 0x6008, symBinAddr: 0x100009EE8, symSize: 0x48 }
  - { offsetInCU: 0x20EE7, offset: 0x20EE7, size: 0x8, addend: 0x0, symName: __ZNSt3__16chrono8durationIdNS_5ratioILl1ELl1EEEEC1B7v160006IdEERKT_PNS_9enable_ifIXaasr14is_convertibleIS8_dEE5valueooL_ZNS_17integral_constantIbLb1EE5valueEEntsr23treat_as_floating_pointIS6_EE5valueEvE4typeE, symObjAddr: 0x60D0, symBinAddr: 0x100009FB0, symSize: 0x3C }
  - { offsetInCU: 0x20F33, offset: 0x20F33, size: 0x8, addend: 0x0, symName: __ZNSt3__16chrono8durationIdNS_5ratioILl1ELl1EEEEC2B7v160006IdEERKT_PNS_9enable_ifIXaasr14is_convertibleIS8_dEE5valueooL_ZNS_17integral_constantIbLb1EE5valueEEntsr23treat_as_floating_pointIS6_EE5valueEvE4typeE, symObjAddr: 0x610C, symBinAddr: 0x100009FEC, symSize: 0x28 }
  - { offsetInCU: 0x20F7F, offset: 0x20F7F, size: 0x8, addend: 0x0, symName: __ZN8LruCacheINSt3__112basic_stringIcNS0_11char_traitsIcEENS0_9allocatorIcEEEEiED2Ev, symObjAddr: 0x6134, symBinAddr: 0x10000A014, symSize: 0x38 }
  - { offsetInCU: 0x20FAA, offset: 0x20FAA, size: 0x8, addend: 0x0, symName: __ZNSt3__14listINS_4pairINS_12basic_stringIcNS_11char_traitsIcEENS_9allocatorIcEEEEiEENS5_IS8_EEED1Ev, symObjAddr: 0x616C, symBinAddr: 0x10000A04C, symSize: 0x2C }
  - { offsetInCU: 0x20FD6, offset: 0x20FD6, size: 0x8, addend: 0x0, symName: __ZNSt3__113unordered_mapINS_12basic_stringIcNS_11char_traitsIcEENS_9allocatorIcEEEENS_15__list_iteratorINS_4pairIS6_iEEPvEENS_4hashIS6_EENS_8equal_toIS6_EENS4_INS8_IKS6_SB_EEEEED1B7v160006Ev, symObjAddr: 0x6198, symBinAddr: 0x10000A078, symSize: 0x2C }
  - { offsetInCU: 0x20FFF, offset: 0x20FFF, size: 0x8, addend: 0x0, symName: __ZNSt3__14listINS_4pairINS_12basic_stringIcNS_11char_traitsIcEENS_9allocatorIcEEEEiEENS5_IS8_EEED2Ev, symObjAddr: 0x61C4, symBinAddr: 0x10000A0A4, symSize: 0x2C }
  - { offsetInCU: 0x2102B, offset: 0x2102B, size: 0x8, addend: 0x0, symName: __ZNSt3__110__list_impINS_4pairINS_12basic_stringIcNS_11char_traitsIcEENS_9allocatorIcEEEEiEENS5_IS8_EEED2Ev, symObjAddr: 0x61F0, symBinAddr: 0x10000A0D0, symSize: 0x3C }
  - { offsetInCU: 0x21056, offset: 0x21056, size: 0x8, addend: 0x0, symName: __ZNSt3__110__list_impINS_4pairINS_12basic_stringIcNS_11char_traitsIcEENS_9allocatorIcEEEEiEENS5_IS8_EEE5clearEv, symObjAddr: 0x622C, symBinAddr: 0x10000A10C, symSize: 0xEC }
  - { offsetInCU: 0x210C6, offset: 0x210C6, size: 0x8, addend: 0x0, symName: __ZNKSt3__110__list_impINS_4pairINS_12basic_stringIcNS_11char_traitsIcEENS_9allocatorIcEEEEiEENS5_IS8_EEE5emptyB7v160006Ev, symObjAddr: 0x6328, symBinAddr: 0x10000A208, symSize: 0x34 }
  - { offsetInCU: 0x210EA, offset: 0x210EA, size: 0x8, addend: 0x0, symName: __ZNSt3__110__list_impINS_4pairINS_12basic_stringIcNS_11char_traitsIcEENS_9allocatorIcEEEEiEENS5_IS8_EEE12__node_allocB7v160006Ev, symObjAddr: 0x635C, symBinAddr: 0x10000A23C, symSize: 0x28 }
  - { offsetInCU: 0x2110E, offset: 0x2110E, size: 0x8, addend: 0x0, symName: __ZNKSt3__110__list_impINS_4pairINS_12basic_stringIcNS_11char_traitsIcEENS_9allocatorIcEEEEiEENS5_IS8_EEE13__end_as_linkB7v160006Ev, symObjAddr: 0x6384, symBinAddr: 0x10000A264, symSize: 0x44 }
  - { offsetInCU: 0x21133, offset: 0x21133, size: 0x8, addend: 0x0, symName: __ZNSt3__110__list_impINS_4pairINS_12basic_stringIcNS_11char_traitsIcEENS_9allocatorIcEEEEiEENS5_IS8_EEE14__unlink_nodesEPNS_16__list_node_baseIS8_PvEESE_, symObjAddr: 0x63C8, symBinAddr: 0x10000A2A8, symSize: 0x3C }
  - { offsetInCU: 0x21167, offset: 0x21167, size: 0x8, addend: 0x0, symName: __ZNSt3__110__list_impINS_4pairINS_12basic_stringIcNS_11char_traitsIcEENS_9allocatorIcEEEEiEENS5_IS8_EEE4__szB7v160006Ev, symObjAddr: 0x6404, symBinAddr: 0x10000A2E4, symSize: 0x28 }
  - { offsetInCU: 0x2118B, offset: 0x2118B, size: 0x8, addend: 0x0, symName: __ZNSt3__116__list_node_baseINS_4pairINS_12basic_stringIcNS_11char_traitsIcEENS_9allocatorIcEEEEiEEPvE9__as_nodeB7v160006Ev, symObjAddr: 0x642C, symBinAddr: 0x10000A30C, symSize: 0x24 }
  - { offsetInCU: 0x211B0, offset: 0x211B0, size: 0x8, addend: 0x0, symName: __ZNSt3__116allocator_traitsINS_9allocatorINS_11__list_nodeINS_4pairINS_12basic_stringIcNS_11char_traitsIcEENS1_IcEEEEiEEPvEEEEE7destroyB7v160006IS9_vvEEvRSC_PT_, symObjAddr: 0x6450, symBinAddr: 0x10000A330, symSize: 0x28 }
  - { offsetInCU: 0x211EB, offset: 0x211EB, size: 0x8, addend: 0x0, symName: __ZNSt3__116allocator_traitsINS_9allocatorINS_11__list_nodeINS_4pairINS_12basic_stringIcNS_11char_traitsIcEENS1_IcEEEEiEEPvEEEEE10deallocateB7v160006ERSC_PSB_m, symObjAddr: 0x6478, symBinAddr: 0x10000A358, symSize: 0x34 }
  - { offsetInCU: 0x2122C, offset: 0x2122C, size: 0x8, addend: 0x0, symName: __ZNKSt3__110__list_impINS_4pairINS_12basic_stringIcNS_11char_traitsIcEENS_9allocatorIcEEEEiEENS5_IS8_EEE4__szB7v160006Ev, symObjAddr: 0x64BC, symBinAddr: 0x10000A39C, symSize: 0x28 }
  - { offsetInCU: 0x21250, offset: 0x21250, size: 0x8, addend: 0x0, symName: __ZNKSt3__117__compressed_pairImNS_9allocatorINS_11__list_nodeINS_4pairINS_12basic_stringIcNS_11char_traitsIcEENS1_IcEEEEiEEPvEEEEE5firstB7v160006Ev, symObjAddr: 0x64E4, symBinAddr: 0x10000A3C4, symSize: 0x24 }
  - { offsetInCU: 0x21274, offset: 0x21274, size: 0x8, addend: 0x0, symName: __ZNSt3__117__compressed_pairImNS_9allocatorINS_11__list_nodeINS_4pairINS_12basic_stringIcNS_11char_traitsIcEENS1_IcEEEEiEEPvEEEEE6secondB7v160006Ev, symObjAddr: 0x6508, symBinAddr: 0x10000A3E8, symSize: 0x24 }
  - { offsetInCU: 0x21299, offset: 0x21299, size: 0x8, addend: 0x0, symName: __ZNSt3__122__compressed_pair_elemINS_9allocatorINS_11__list_nodeINS_4pairINS_12basic_stringIcNS_11char_traitsIcEENS1_IcEEEEiEEPvEEEELi1ELb1EE5__getB7v160006Ev, symObjAddr: 0x652C, symBinAddr: 0x10000A40C, symSize: 0x14 }
  - { offsetInCU: 0x212BE, offset: 0x212BE, size: 0x8, addend: 0x0, symName: __ZNSt3__126__list_node_pointer_traitsINS_4pairINS_12basic_stringIcNS_11char_traitsIcEENS_9allocatorIcEEEEiEEPvE26__unsafe_link_pointer_castB7v160006EPNS_16__list_node_baseIS8_S9_EE, symObjAddr: 0x6540, symBinAddr: 0x10000A420, symSize: 0x14 }
  - { offsetInCU: 0x212E1, offset: 0x212E1, size: 0x8, addend: 0x0, symName: __ZNSt3__116__list_node_baseINS_4pairINS_12basic_stringIcNS_11char_traitsIcEENS_9allocatorIcEEEEiEEPvE6__selfB7v160006Ev, symObjAddr: 0x6554, symBinAddr: 0x10000A434, symSize: 0x24 }
  - { offsetInCU: 0x2130B, offset: 0x2130B, size: 0x8, addend: 0x0, symName: __ZNSt3__114pointer_traitsIPNS_16__list_node_baseINS_4pairINS_12basic_stringIcNS_11char_traitsIcEENS_9allocatorIcEEEEiEEPvEEE10pointer_toB7v160006ERSB_, symObjAddr: 0x6578, symBinAddr: 0x10000A458, symSize: 0x14 }
  - { offsetInCU: 0x2132D, offset: 0x2132D, size: 0x8, addend: 0x0, symName: __ZNSt3__117__compressed_pairImNS_9allocatorINS_11__list_nodeINS_4pairINS_12basic_stringIcNS_11char_traitsIcEENS1_IcEEEEiEEPvEEEEE5firstB7v160006Ev, symObjAddr: 0x658C, symBinAddr: 0x10000A46C, symSize: 0x24 }
  - { offsetInCU: 0x21352, offset: 0x21352, size: 0x8, addend: 0x0, symName: __ZNSt3__14pairINS_12basic_stringIcNS_11char_traitsIcEENS_9allocatorIcEEEEiED1Ev, symObjAddr: 0x65F8, symBinAddr: 0x10000A4D8, symSize: 0x2C }
  - { offsetInCU: 0x2137D, offset: 0x2137D, size: 0x8, addend: 0x0, symName: __ZNSt3__14pairINS_12basic_stringIcNS_11char_traitsIcEENS_9allocatorIcEEEEiED2Ev, symObjAddr: 0x6624, symBinAddr: 0x10000A504, symSize: 0x2C }
  - { offsetInCU: 0x213A7, offset: 0x213A7, size: 0x8, addend: 0x0, symName: __ZNSt3__19allocatorINS_11__list_nodeINS_4pairINS_12basic_stringIcNS_11char_traitsIcEENS0_IcEEEEiEEPvEEE10deallocateB7v160006EPSA_m, symObjAddr: 0x6650, symBinAddr: 0x10000A530, symSize: 0x44 }
  - { offsetInCU: 0x213E8, offset: 0x213E8, size: 0x8, addend: 0x0, symName: __ZNSt3__113unordered_mapINS_12basic_stringIcNS_11char_traitsIcEENS_9allocatorIcEEEENS_15__list_iteratorINS_4pairIS6_iEEPvEENS_4hashIS6_EENS_8equal_toIS6_EENS4_INS8_IKS6_SB_EEEEED2B7v160006Ev, symObjAddr: 0x6694, symBinAddr: 0x10000A574, symSize: 0x2C }
  - { offsetInCU: 0x21411, offset: 0x21411, size: 0x8, addend: 0x0, symName: __ZNSt3__112__hash_tableINS_17__hash_value_typeINS_12basic_stringIcNS_11char_traitsIcEENS_9allocatorIcEEEENS_15__list_iteratorINS_4pairIS7_iEEPvEEEENS_22__unordered_map_hasherIS7_SD_NS_4hashIS7_EENS_8equal_toIS7_EELb1EEENS_21__unordered_map_equalIS7_SD_SI_SG_Lb1EEENS5_ISD_EEED1Ev, symObjAddr: 0x66C0, symBinAddr: 0x10000A5A0, symSize: 0x2C }
  - { offsetInCU: 0x2143C, offset: 0x2143C, size: 0x8, addend: 0x0, symName: __ZNSt3__112__hash_tableINS_17__hash_value_typeINS_12basic_stringIcNS_11char_traitsIcEENS_9allocatorIcEEEENS_15__list_iteratorINS_4pairIS7_iEEPvEEEENS_22__unordered_map_hasherIS7_SD_NS_4hashIS7_EENS_8equal_toIS7_EELb1EEENS_21__unordered_map_equalIS7_SD_SI_SG_Lb1EEENS5_ISD_EEED2Ev, symObjAddr: 0x66EC, symBinAddr: 0x10000A5CC, symSize: 0x58 }
  - { offsetInCU: 0x21467, offset: 0x21467, size: 0x8, addend: 0x0, symName: __ZNSt3__112__hash_tableINS_17__hash_value_typeINS_12basic_stringIcNS_11char_traitsIcEENS_9allocatorIcEEEENS_15__list_iteratorINS_4pairIS7_iEEPvEEEENS_22__unordered_map_hasherIS7_SD_NS_4hashIS7_EENS_8equal_toIS7_EELb1EEENS_21__unordered_map_equalIS7_SD_SI_SG_Lb1EEENS5_ISD_EEE17__deallocate_nodeEPNS_16__hash_node_baseIPNS_11__hash_nodeISD_SB_EEEE, symObjAddr: 0x6744, symBinAddr: 0x10000A624, symSize: 0xA8 }
  - { offsetInCU: 0x214D0, offset: 0x214D0, size: 0x8, addend: 0x0, symName: __ZNSt3__117__compressed_pairINS_16__hash_node_baseIPNS_11__hash_nodeINS_17__hash_value_typeINS_12basic_stringIcNS_11char_traitsIcEENS_9allocatorIcEEEENS_15__list_iteratorINS_4pairIS9_iEEPvEEEESD_EEEENS7_ISG_EEE5firstB7v160006Ev, symObjAddr: 0x67EC, symBinAddr: 0x10000A6CC, symSize: 0x24 }
  - { offsetInCU: 0x214F5, offset: 0x214F5, size: 0x8, addend: 0x0, symName: __ZNSt3__110unique_ptrIA_PNS_16__hash_node_baseIPNS_11__hash_nodeINS_17__hash_value_typeINS_12basic_stringIcNS_11char_traitsIcEENS_9allocatorIcEEEENS_15__list_iteratorINS_4pairIS9_iEEPvEEEESD_EEEENS_25__bucket_list_deallocatorINS7_ISJ_EEEEED1B7v160006Ev, symObjAddr: 0x6820, symBinAddr: 0x10000A700, symSize: 0x2C }
  - { offsetInCU: 0x2151D, offset: 0x2151D, size: 0x8, addend: 0x0, symName: __ZNSt3__112__hash_tableINS_17__hash_value_typeINS_12basic_stringIcNS_11char_traitsIcEENS_9allocatorIcEEEENS_15__list_iteratorINS_4pairIS7_iEEPvEEEENS_22__unordered_map_hasherIS7_SD_NS_4hashIS7_EENS_8equal_toIS7_EELb1EEENS_21__unordered_map_equalIS7_SD_SI_SG_Lb1EEENS5_ISD_EEE12__node_allocB7v160006Ev, symObjAddr: 0x684C, symBinAddr: 0x10000A72C, symSize: 0x28 }
  - { offsetInCU: 0x21541, offset: 0x21541, size: 0x8, addend: 0x0, symName: __ZNSt3__116__hash_node_baseIPNS_11__hash_nodeINS_17__hash_value_typeINS_12basic_stringIcNS_11char_traitsIcEENS_9allocatorIcEEEENS_15__list_iteratorINS_4pairIS8_iEEPvEEEESC_EEE8__upcastB7v160006Ev, symObjAddr: 0x6874, symBinAddr: 0x10000A754, symSize: 0x24 }
  - { offsetInCU: 0x21566, offset: 0x21566, size: 0x8, addend: 0x0, symName: __ZNSt3__116allocator_traitsINS_9allocatorINS_11__hash_nodeINS_17__hash_value_typeINS_12basic_stringIcNS_11char_traitsIcEENS1_IcEEEENS_15__list_iteratorINS_4pairIS8_iEEPvEEEESC_EEEEE7destroyB7v160006INSA_IKS8_SD_EEvvEEvRSG_PT_, symObjAddr: 0x6898, symBinAddr: 0x10000A778, symSize: 0x28 }
  - { offsetInCU: 0x215A1, offset: 0x215A1, size: 0x8, addend: 0x0, symName: __ZNSt3__122__hash_key_value_typesINS_17__hash_value_typeINS_12basic_stringIcNS_11char_traitsIcEENS_9allocatorIcEEEENS_15__list_iteratorINS_4pairIS7_iEEPvEEEEE9__get_ptrB7v160006ERSD_, symObjAddr: 0x68C0, symBinAddr: 0x10000A7A0, symSize: 0x24 }
  - { offsetInCU: 0x215C4, offset: 0x215C4, size: 0x8, addend: 0x0, symName: __ZNSt3__116allocator_traitsINS_9allocatorINS_11__hash_nodeINS_17__hash_value_typeINS_12basic_stringIcNS_11char_traitsIcEENS1_IcEEEENS_15__list_iteratorINS_4pairIS8_iEEPvEEEESC_EEEEE10deallocateB7v160006ERSG_PSF_m, symObjAddr: 0x68E4, symBinAddr: 0x10000A7C4, symSize: 0x34 }
  - { offsetInCU: 0x21605, offset: 0x21605, size: 0x8, addend: 0x0, symName: __ZNSt3__117__compressed_pairINS_16__hash_node_baseIPNS_11__hash_nodeINS_17__hash_value_typeINS_12basic_stringIcNS_11char_traitsIcEENS_9allocatorIcEEEENS_15__list_iteratorINS_4pairIS9_iEEPvEEEESD_EEEENS7_ISG_EEE6secondB7v160006Ev, symObjAddr: 0x6918, symBinAddr: 0x10000A7F8, symSize: 0x24 }
  - { offsetInCU: 0x2162A, offset: 0x2162A, size: 0x8, addend: 0x0, symName: __ZNSt3__122__compressed_pair_elemINS_9allocatorINS_11__hash_nodeINS_17__hash_value_typeINS_12basic_stringIcNS_11char_traitsIcEENS1_IcEEEENS_15__list_iteratorINS_4pairIS8_iEEPvEEEESC_EEEELi1ELb1EE5__getB7v160006Ev, symObjAddr: 0x693C, symBinAddr: 0x10000A81C, symSize: 0x14 }
  - { offsetInCU: 0x2164F, offset: 0x2164F, size: 0x8, addend: 0x0, symName: __ZNSt3__114pointer_traitsIPNS_16__hash_node_baseIPNS_11__hash_nodeINS_17__hash_value_typeINS_12basic_stringIcNS_11char_traitsIcEENS_9allocatorIcEEEENS_15__list_iteratorINS_4pairIS9_iEEPvEEEESD_EEEEE10pointer_toB7v160006ERSI_, symObjAddr: 0x6950, symBinAddr: 0x10000A830, symSize: 0x14 }
  - { offsetInCU: 0x21672, offset: 0x21672, size: 0x8, addend: 0x0, symName: __ZNSt3__14pairIKNS_12basic_stringIcNS_11char_traitsIcEENS_9allocatorIcEEEENS_15__list_iteratorINS0_IS6_iEEPvEEED1Ev, symObjAddr: 0x69AC, symBinAddr: 0x10000A88C, symSize: 0x2C }
  - { offsetInCU: 0x2169D, offset: 0x2169D, size: 0x8, addend: 0x0, symName: __ZNSt3__14pairIKNS_12basic_stringIcNS_11char_traitsIcEENS_9allocatorIcEEEENS_15__list_iteratorINS0_IS6_iEEPvEEED2Ev, symObjAddr: 0x69D8, symBinAddr: 0x10000A8B8, symSize: 0x2C }
  - { offsetInCU: 0x216C7, offset: 0x216C7, size: 0x8, addend: 0x0, symName: __ZNSt3__117__hash_value_typeINS_12basic_stringIcNS_11char_traitsIcEENS_9allocatorIcEEEENS_15__list_iteratorINS_4pairIS6_iEEPvEEE11__get_valueB7v160006Ev, symObjAddr: 0x6A04, symBinAddr: 0x10000A8E4, symSize: 0x24 }
  - { offsetInCU: 0x216EB, offset: 0x216EB, size: 0x8, addend: 0x0, symName: __ZNSt3__19allocatorINS_11__hash_nodeINS_17__hash_value_typeINS_12basic_stringIcNS_11char_traitsIcEENS0_IcEEEENS_15__list_iteratorINS_4pairIS7_iEEPvEEEESB_EEE10deallocateB7v160006EPSE_m, symObjAddr: 0x6A60, symBinAddr: 0x10000A940, symSize: 0x44 }
  - { offsetInCU: 0x2172C, offset: 0x2172C, size: 0x8, addend: 0x0, symName: __ZNSt3__122__compressed_pair_elemINS_16__hash_node_baseIPNS_11__hash_nodeINS_17__hash_value_typeINS_12basic_stringIcNS_11char_traitsIcEENS_9allocatorIcEEEENS_15__list_iteratorINS_4pairIS9_iEEPvEEEESD_EEEELi0ELb0EE5__getB7v160006Ev, symObjAddr: 0x6AA4, symBinAddr: 0x10000A984, symSize: 0x14 }
  - { offsetInCU: 0x21751, offset: 0x21751, size: 0x8, addend: 0x0, symName: __ZNSt3__110unique_ptrIA_PNS_16__hash_node_baseIPNS_11__hash_nodeINS_17__hash_value_typeINS_12basic_stringIcNS_11char_traitsIcEENS_9allocatorIcEEEENS_15__list_iteratorINS_4pairIS9_iEEPvEEEESD_EEEENS_25__bucket_list_deallocatorINS7_ISJ_EEEEED2B7v160006Ev, symObjAddr: 0x6AB8, symBinAddr: 0x10000A998, symSize: 0x30 }
  - { offsetInCU: 0x21779, offset: 0x21779, size: 0x8, addend: 0x0, symName: __ZNSt3__110unique_ptrIA_PNS_16__hash_node_baseIPNS_11__hash_nodeINS_17__hash_value_typeINS_12basic_stringIcNS_11char_traitsIcEENS_9allocatorIcEEEENS_15__list_iteratorINS_4pairIS9_iEEPvEEEESD_EEEENS_25__bucket_list_deallocatorINS7_ISJ_EEEEE5resetB7v160006EDn, symObjAddr: 0x6AE8, symBinAddr: 0x10000A9C8, symSize: 0x6C }
  - { offsetInCU: 0x217B8, offset: 0x217B8, size: 0x8, addend: 0x0, symName: __ZNSt3__117__compressed_pairIPPNS_16__hash_node_baseIPNS_11__hash_nodeINS_17__hash_value_typeINS_12basic_stringIcNS_11char_traitsIcEENS_9allocatorIcEEEENS_15__list_iteratorINS_4pairIS9_iEEPvEEEESD_EEEENS_25__bucket_list_deallocatorINS7_ISJ_EEEEE5firstB7v160006Ev, symObjAddr: 0x6B54, symBinAddr: 0x10000AA34, symSize: 0x24 }
  - { offsetInCU: 0x217DC, offset: 0x217DC, size: 0x8, addend: 0x0, symName: __ZNSt3__117__compressed_pairIPPNS_16__hash_node_baseIPNS_11__hash_nodeINS_17__hash_value_typeINS_12basic_stringIcNS_11char_traitsIcEENS_9allocatorIcEEEENS_15__list_iteratorINS_4pairIS9_iEEPvEEEESD_EEEENS_25__bucket_list_deallocatorINS7_ISJ_EEEEE6secondB7v160006Ev, symObjAddr: 0x6B78, symBinAddr: 0x10000AA58, symSize: 0x28 }
  - { offsetInCU: 0x21800, offset: 0x21800, size: 0x8, addend: 0x0, symName: __ZNSt3__125__bucket_list_deallocatorINS_9allocatorIPNS_16__hash_node_baseIPNS_11__hash_nodeINS_17__hash_value_typeINS_12basic_stringIcNS_11char_traitsIcEENS1_IcEEEENS_15__list_iteratorINS_4pairIS9_iEEPvEEEESD_EEEEEEEclB7v160006EPSJ_, symObjAddr: 0x6BA0, symBinAddr: 0x10000AA80, symSize: 0x58 }
  - { offsetInCU: 0x21834, offset: 0x21834, size: 0x8, addend: 0x0, symName: __ZNSt3__122__compressed_pair_elemIPPNS_16__hash_node_baseIPNS_11__hash_nodeINS_17__hash_value_typeINS_12basic_stringIcNS_11char_traitsIcEENS_9allocatorIcEEEENS_15__list_iteratorINS_4pairIS9_iEEPvEEEESD_EEEELi0ELb0EE5__getB7v160006Ev, symObjAddr: 0x6BF8, symBinAddr: 0x10000AAD8, symSize: 0x14 }
  - { offsetInCU: 0x21859, offset: 0x21859, size: 0x8, addend: 0x0, symName: __ZNSt3__122__compressed_pair_elemINS_25__bucket_list_deallocatorINS_9allocatorIPNS_16__hash_node_baseIPNS_11__hash_nodeINS_17__hash_value_typeINS_12basic_stringIcNS_11char_traitsIcEENS2_IcEEEENS_15__list_iteratorINS_4pairISA_iEEPvEEEESE_EEEEEEEELi1ELb0EE5__getB7v160006Ev, symObjAddr: 0x6C0C, symBinAddr: 0x10000AAEC, symSize: 0x14 }
  - { offsetInCU: 0x2187E, offset: 0x2187E, size: 0x8, addend: 0x0, symName: __ZNSt3__116allocator_traitsINS_9allocatorIPNS_16__hash_node_baseIPNS_11__hash_nodeINS_17__hash_value_typeINS_12basic_stringIcNS_11char_traitsIcEENS1_IcEEEENS_15__list_iteratorINS_4pairIS9_iEEPvEEEESD_EEEEEEE10deallocateB7v160006ERSK_PSJ_m, symObjAddr: 0x6C20, symBinAddr: 0x10000AB00, symSize: 0x34 }
  - { offsetInCU: 0x218BF, offset: 0x218BF, size: 0x8, addend: 0x0, symName: __ZNSt3__125__bucket_list_deallocatorINS_9allocatorIPNS_16__hash_node_baseIPNS_11__hash_nodeINS_17__hash_value_typeINS_12basic_stringIcNS_11char_traitsIcEENS1_IcEEEENS_15__list_iteratorINS_4pairIS9_iEEPvEEEESD_EEEEEEE7__allocB7v160006Ev, symObjAddr: 0x6C54, symBinAddr: 0x10000AB34, symSize: 0x24 }
  - { offsetInCU: 0x218E3, offset: 0x218E3, size: 0x8, addend: 0x0, symName: __ZNSt3__125__bucket_list_deallocatorINS_9allocatorIPNS_16__hash_node_baseIPNS_11__hash_nodeINS_17__hash_value_typeINS_12basic_stringIcNS_11char_traitsIcEENS1_IcEEEENS_15__list_iteratorINS_4pairIS9_iEEPvEEEESD_EEEEEEE4sizeB7v160006Ev, symObjAddr: 0x6C78, symBinAddr: 0x10000AB58, symSize: 0x24 }
  - { offsetInCU: 0x21907, offset: 0x21907, size: 0x8, addend: 0x0, symName: __ZNSt3__19allocatorIPNS_16__hash_node_baseIPNS_11__hash_nodeINS_17__hash_value_typeINS_12basic_stringIcNS_11char_traitsIcEENS0_IcEEEENS_15__list_iteratorINS_4pairIS8_iEEPvEEEESC_EEEEE10deallocateB7v160006EPSI_m, symObjAddr: 0x6C9C, symBinAddr: 0x10000AB7C, symSize: 0x40 }
  - { offsetInCU: 0x21947, offset: 0x21947, size: 0x8, addend: 0x0, symName: __ZNSt3__117__compressed_pairImNS_9allocatorIPNS_16__hash_node_baseIPNS_11__hash_nodeINS_17__hash_value_typeINS_12basic_stringIcNS_11char_traitsIcEENS1_IcEEEENS_15__list_iteratorINS_4pairIS9_iEEPvEEEESD_EEEEEEE6secondB7v160006Ev, symObjAddr: 0x6CDC, symBinAddr: 0x10000ABBC, symSize: 0x24 }
  - { offsetInCU: 0x2196C, offset: 0x2196C, size: 0x8, addend: 0x0, symName: __ZNSt3__122__compressed_pair_elemINS_9allocatorIPNS_16__hash_node_baseIPNS_11__hash_nodeINS_17__hash_value_typeINS_12basic_stringIcNS_11char_traitsIcEENS1_IcEEEENS_15__list_iteratorINS_4pairIS9_iEEPvEEEESD_EEEEEELi1ELb1EE5__getB7v160006Ev, symObjAddr: 0x6D00, symBinAddr: 0x10000ABE0, symSize: 0x14 }
  - { offsetInCU: 0x21990, offset: 0x21990, size: 0x8, addend: 0x0, symName: __ZNSt3__117__compressed_pairImNS_9allocatorIPNS_16__hash_node_baseIPNS_11__hash_nodeINS_17__hash_value_typeINS_12basic_stringIcNS_11char_traitsIcEENS1_IcEEEENS_15__list_iteratorINS_4pairIS9_iEEPvEEEESD_EEEEEEE5firstB7v160006Ev, symObjAddr: 0x6D14, symBinAddr: 0x10000ABF4, symSize: 0x24 }
  - { offsetInCU: 0x219B5, offset: 0x219B5, size: 0x8, addend: 0x0, symName: __ZN8LruCacheI7TestKey9TestValueEC2Ei, symObjAddr: 0x6D38, symBinAddr: 0x10000AC18, symSize: 0x44 }
  - { offsetInCU: 0x219EC, offset: 0x219EC, size: 0x8, addend: 0x0, symName: __ZNSt3__113unordered_mapI7TestKeyNS_15__list_iteratorINS_4pairIS1_9TestValueEEPvEENS_4hashIS1_EENS_8equal_toIS1_EENS_9allocatorINS3_IKS1_S7_EEEEEC1B7v160006Ev, symObjAddr: 0x6D7C, symBinAddr: 0x10000AC5C, symSize: 0x2C }
  - { offsetInCU: 0x21A15, offset: 0x21A15, size: 0x8, addend: 0x0, symName: __ZNSt3__14listINS_4pairI7TestKey9TestValueEENS_9allocatorIS4_EEEC1B7v160006Ev, symObjAddr: 0x6DA8, symBinAddr: 0x10000AC88, symSize: 0x2C }
  - { offsetInCU: 0x21A3E, offset: 0x21A3E, size: 0x8, addend: 0x0, symName: __ZNSt3__113unordered_mapI7TestKeyNS_15__list_iteratorINS_4pairIS1_9TestValueEEPvEENS_4hashIS1_EENS_8equal_toIS1_EENS_9allocatorINS3_IKS1_S7_EEEEEC2B7v160006Ev, symObjAddr: 0x6DD4, symBinAddr: 0x10000ACB4, symSize: 0x3C }
  - { offsetInCU: 0x21A67, offset: 0x21A67, size: 0x8, addend: 0x0, symName: __ZNSt3__112__hash_tableINS_17__hash_value_typeI7TestKeyNS_15__list_iteratorINS_4pairIS2_9TestValueEEPvEEEENS_22__unordered_map_hasherIS2_S9_NS_4hashIS2_EENS_8equal_toIS2_EELb1EEENS_21__unordered_map_equalIS2_S9_SE_SC_Lb1EEENS_9allocatorIS9_EEEC1Ev, symObjAddr: 0x6E10, symBinAddr: 0x10000ACF0, symSize: 0x2C }
  - { offsetInCU: 0x21A92, offset: 0x21A92, size: 0x8, addend: 0x0, symName: __ZNSt3__112__hash_tableINS_17__hash_value_typeI7TestKeyNS_15__list_iteratorINS_4pairIS2_9TestValueEEPvEEEENS_22__unordered_map_hasherIS2_S9_NS_4hashIS2_EENS_8equal_toIS2_EELb1EEENS_21__unordered_map_equalIS2_S9_SE_SC_Lb1EEENS_9allocatorIS9_EEEC2Ev, symObjAddr: 0x6E4C, symBinAddr: 0x10000AD2C, symSize: 0x7C }
  - { offsetInCU: 0x21ABD, offset: 0x21ABD, size: 0x8, addend: 0x0, symName: __ZNSt3__110unique_ptrIA_PNS_16__hash_node_baseIPNS_11__hash_nodeINS_17__hash_value_typeI7TestKeyNS_15__list_iteratorINS_4pairIS4_9TestValueEEPvEEEES9_EEEENS_25__bucket_list_deallocatorINS_9allocatorISF_EEEEEC1B7v160006ILb1EvEEv, symObjAddr: 0x6EC8, symBinAddr: 0x10000ADA8, symSize: 0x2C }
  - { offsetInCU: 0x21AF1, offset: 0x21AF1, size: 0x8, addend: 0x0, symName: __ZNSt3__117__compressed_pairINS_16__hash_node_baseIPNS_11__hash_nodeINS_17__hash_value_typeI7TestKeyNS_15__list_iteratorINS_4pairIS4_9TestValueEEPvEEEES9_EEEENS_9allocatorISC_EEEC1B7v160006ILb1EvEEv, symObjAddr: 0x6EF4, symBinAddr: 0x10000ADD4, symSize: 0x2C }
  - { offsetInCU: 0x21B2A, offset: 0x21B2A, size: 0x8, addend: 0x0, symName: __ZNSt3__117__compressed_pairImNS_22__unordered_map_hasherI7TestKeyNS_17__hash_value_typeIS2_NS_15__list_iteratorINS_4pairIS2_9TestValueEEPvEEEENS_4hashIS2_EENS_8equal_toIS2_EELb1EEEEC1B7v160006IiNS_18__default_init_tagEEEOT_OT0_, symObjAddr: 0x6F20, symBinAddr: 0x10000AE00, symSize: 0x3C }
  - { offsetInCU: 0x21B86, offset: 0x21B86, size: 0x8, addend: 0x0, symName: __ZNSt3__117__compressed_pairIfNS_21__unordered_map_equalI7TestKeyNS_17__hash_value_typeIS2_NS_15__list_iteratorINS_4pairIS2_9TestValueEEPvEEEENS_8equal_toIS2_EENS_4hashIS2_EELb1EEEEC1B7v160006IfNS_18__default_init_tagEEEOT_OT0_, symObjAddr: 0x6F5C, symBinAddr: 0x10000AE3C, symSize: 0x3C }
  - { offsetInCU: 0x21BDD, offset: 0x21BDD, size: 0x8, addend: 0x0, symName: __ZNSt3__110unique_ptrIA_PNS_16__hash_node_baseIPNS_11__hash_nodeINS_17__hash_value_typeI7TestKeyNS_15__list_iteratorINS_4pairIS4_9TestValueEEPvEEEES9_EEEENS_25__bucket_list_deallocatorINS_9allocatorISF_EEEEEC2B7v160006ILb1EvEEv, symObjAddr: 0x6F98, symBinAddr: 0x10000AE78, symSize: 0x3C }
  - { offsetInCU: 0x21C16, offset: 0x21C16, size: 0x8, addend: 0x0, symName: __ZNSt3__117__compressed_pairIPPNS_16__hash_node_baseIPNS_11__hash_nodeINS_17__hash_value_typeI7TestKeyNS_15__list_iteratorINS_4pairIS4_9TestValueEEPvEEEES9_EEEENS_25__bucket_list_deallocatorINS_9allocatorISF_EEEEEC1B7v160006INS_16__value_init_tagESN_EEOT_OT0_, symObjAddr: 0x6FD4, symBinAddr: 0x10000AEB4, symSize: 0x3C }
  - { offsetInCU: 0x21C6D, offset: 0x21C6D, size: 0x8, addend: 0x0, symName: __ZNSt3__117__compressed_pairIPPNS_16__hash_node_baseIPNS_11__hash_nodeINS_17__hash_value_typeI7TestKeyNS_15__list_iteratorINS_4pairIS4_9TestValueEEPvEEEES9_EEEENS_25__bucket_list_deallocatorINS_9allocatorISF_EEEEEC2B7v160006INS_16__value_init_tagESN_EEOT_OT0_, symObjAddr: 0x7010, symBinAddr: 0x10000AEF0, symSize: 0x40 }
  - { offsetInCU: 0x21CC4, offset: 0x21CC4, size: 0x8, addend: 0x0, symName: __ZNSt3__122__compressed_pair_elemIPPNS_16__hash_node_baseIPNS_11__hash_nodeINS_17__hash_value_typeI7TestKeyNS_15__list_iteratorINS_4pairIS4_9TestValueEEPvEEEES9_EEEELi0ELb0EEC2B7v160006ENS_16__value_init_tagE, symObjAddr: 0x7050, symBinAddr: 0x10000AF30, symSize: 0x18 }
  - { offsetInCU: 0x21CF7, offset: 0x21CF7, size: 0x8, addend: 0x0, symName: __ZNSt3__122__compressed_pair_elemINS_25__bucket_list_deallocatorINS_9allocatorIPNS_16__hash_node_baseIPNS_11__hash_nodeINS_17__hash_value_typeI7TestKeyNS_15__list_iteratorINS_4pairIS6_9TestValueEEPvEEEESB_EEEEEEEELi1ELb0EEC2B7v160006ENS_16__value_init_tagE, symObjAddr: 0x7068, symBinAddr: 0x10000AF48, symSize: 0x2C }
  - { offsetInCU: 0x21D2A, offset: 0x21D2A, size: 0x8, addend: 0x0, symName: __ZNSt3__125__bucket_list_deallocatorINS_9allocatorIPNS_16__hash_node_baseIPNS_11__hash_nodeINS_17__hash_value_typeI7TestKeyNS_15__list_iteratorINS_4pairIS5_9TestValueEEPvEEEESA_EEEEEEEC1B7v160006Ev, symObjAddr: 0x7094, symBinAddr: 0x10000AF74, symSize: 0x2C }
  - { offsetInCU: 0x21D53, offset: 0x21D53, size: 0x8, addend: 0x0, symName: __ZNSt3__125__bucket_list_deallocatorINS_9allocatorIPNS_16__hash_node_baseIPNS_11__hash_nodeINS_17__hash_value_typeI7TestKeyNS_15__list_iteratorINS_4pairIS5_9TestValueEEPvEEEESA_EEEEEEEC2B7v160006Ev, symObjAddr: 0x70C0, symBinAddr: 0x10000AFA0, symSize: 0x40 }
  - { offsetInCU: 0x21D7C, offset: 0x21D7C, size: 0x8, addend: 0x0, symName: __ZNSt3__117__compressed_pairImNS_9allocatorIPNS_16__hash_node_baseIPNS_11__hash_nodeINS_17__hash_value_typeI7TestKeyNS_15__list_iteratorINS_4pairIS5_9TestValueEEPvEEEESA_EEEEEEEC1B7v160006IiNS_18__default_init_tagEEEOT_OT0_, symObjAddr: 0x7100, symBinAddr: 0x10000AFE0, symSize: 0x3C }
  - { offsetInCU: 0x21DD3, offset: 0x21DD3, size: 0x8, addend: 0x0, symName: __ZNSt3__117__compressed_pairImNS_9allocatorIPNS_16__hash_node_baseIPNS_11__hash_nodeINS_17__hash_value_typeI7TestKeyNS_15__list_iteratorINS_4pairIS5_9TestValueEEPvEEEESA_EEEEEEEC2B7v160006IiNS_18__default_init_tagEEEOT_OT0_, symObjAddr: 0x713C, symBinAddr: 0x10000B01C, symSize: 0x40 }
  - { offsetInCU: 0x21E2A, offset: 0x21E2A, size: 0x8, addend: 0x0, symName: __ZNSt3__122__compressed_pair_elemImLi0ELb0EEC2B7v160006IivEEOT_, symObjAddr: 0x717C, symBinAddr: 0x10000B05C, symSize: 0x24 }
  - { offsetInCU: 0x21E6B, offset: 0x21E6B, size: 0x8, addend: 0x0, symName: __ZNSt3__122__compressed_pair_elemINS_9allocatorIPNS_16__hash_node_baseIPNS_11__hash_nodeINS_17__hash_value_typeI7TestKeyNS_15__list_iteratorINS_4pairIS5_9TestValueEEPvEEEESA_EEEEEELi1ELb1EEC2B7v160006ENS_18__default_init_tagE, symObjAddr: 0x71A0, symBinAddr: 0x10000B080, symSize: 0x2C }
  - { offsetInCU: 0x21E9E, offset: 0x21E9E, size: 0x8, addend: 0x0, symName: __ZNSt3__19allocatorIPNS_16__hash_node_baseIPNS_11__hash_nodeINS_17__hash_value_typeI7TestKeyNS_15__list_iteratorINS_4pairIS4_9TestValueEEPvEEEES9_EEEEEC2B7v160006Ev, symObjAddr: 0x71CC, symBinAddr: 0x10000B0AC, symSize: 0x2C }
  - { offsetInCU: 0x21EC7, offset: 0x21EC7, size: 0x8, addend: 0x0, symName: __ZNSt3__116__non_trivial_ifILb1ENS_9allocatorIPNS_16__hash_node_baseIPNS_11__hash_nodeINS_17__hash_value_typeI7TestKeyNS_15__list_iteratorINS_4pairIS5_9TestValueEEPvEEEESA_EEEEEEEC2B7v160006Ev, symObjAddr: 0x71F8, symBinAddr: 0x10000B0D8, symSize: 0x14 }
  - { offsetInCU: 0x21EF0, offset: 0x21EF0, size: 0x8, addend: 0x0, symName: __ZNSt3__117__compressed_pairINS_16__hash_node_baseIPNS_11__hash_nodeINS_17__hash_value_typeI7TestKeyNS_15__list_iteratorINS_4pairIS4_9TestValueEEPvEEEES9_EEEENS_9allocatorISC_EEEC2B7v160006ILb1EvEEv, symObjAddr: 0x720C, symBinAddr: 0x10000B0EC, symSize: 0x34 }
  - { offsetInCU: 0x21F24, offset: 0x21F24, size: 0x8, addend: 0x0, symName: __ZNSt3__122__compressed_pair_elemINS_16__hash_node_baseIPNS_11__hash_nodeINS_17__hash_value_typeI7TestKeyNS_15__list_iteratorINS_4pairIS4_9TestValueEEPvEEEES9_EEEELi0ELb0EEC2B7v160006ENS_16__value_init_tagE, symObjAddr: 0x7240, symBinAddr: 0x10000B120, symSize: 0x2C }
  - { offsetInCU: 0x21F57, offset: 0x21F57, size: 0x8, addend: 0x0, symName: __ZNSt3__122__compressed_pair_elemINS_9allocatorINS_11__hash_nodeINS_17__hash_value_typeI7TestKeyNS_15__list_iteratorINS_4pairIS4_9TestValueEEPvEEEES9_EEEELi1ELb1EEC2B7v160006ENS_16__value_init_tagE, symObjAddr: 0x726C, symBinAddr: 0x10000B14C, symSize: 0x2C }
  - { offsetInCU: 0x21F8A, offset: 0x21F8A, size: 0x8, addend: 0x0, symName: __ZNSt3__116__hash_node_baseIPNS_11__hash_nodeINS_17__hash_value_typeI7TestKeyNS_15__list_iteratorINS_4pairIS3_9TestValueEEPvEEEES8_EEEC1B7v160006Ev, symObjAddr: 0x7298, symBinAddr: 0x10000B178, symSize: 0x2C }
  - { offsetInCU: 0x21FB3, offset: 0x21FB3, size: 0x8, addend: 0x0, symName: __ZNSt3__116__hash_node_baseIPNS_11__hash_nodeINS_17__hash_value_typeI7TestKeyNS_15__list_iteratorINS_4pairIS3_9TestValueEEPvEEEES8_EEEC2B7v160006Ev, symObjAddr: 0x72C4, symBinAddr: 0x10000B1A4, symSize: 0x18 }
  - { offsetInCU: 0x21FDC, offset: 0x21FDC, size: 0x8, addend: 0x0, symName: __ZNSt3__19allocatorINS_11__hash_nodeINS_17__hash_value_typeI7TestKeyNS_15__list_iteratorINS_4pairIS3_9TestValueEEPvEEEES8_EEEC2B7v160006Ev, symObjAddr: 0x72DC, symBinAddr: 0x10000B1BC, symSize: 0x2C }
  - { offsetInCU: 0x22005, offset: 0x22005, size: 0x8, addend: 0x0, symName: __ZNSt3__116__non_trivial_ifILb1ENS_9allocatorINS_11__hash_nodeINS_17__hash_value_typeI7TestKeyNS_15__list_iteratorINS_4pairIS4_9TestValueEEPvEEEES9_EEEEEC2B7v160006Ev, symObjAddr: 0x7308, symBinAddr: 0x10000B1E8, symSize: 0x14 }
  - { offsetInCU: 0x2202E, offset: 0x2202E, size: 0x8, addend: 0x0, symName: __ZNSt3__117__compressed_pairImNS_22__unordered_map_hasherI7TestKeyNS_17__hash_value_typeIS2_NS_15__list_iteratorINS_4pairIS2_9TestValueEEPvEEEENS_4hashIS2_EENS_8equal_toIS2_EELb1EEEEC2B7v160006IiNS_18__default_init_tagEEEOT_OT0_, symObjAddr: 0x731C, symBinAddr: 0x10000B1FC, symSize: 0x40 }
  - { offsetInCU: 0x22085, offset: 0x22085, size: 0x8, addend: 0x0, symName: __ZNSt3__122__compressed_pair_elemINS_22__unordered_map_hasherI7TestKeyNS_17__hash_value_typeIS2_NS_15__list_iteratorINS_4pairIS2_9TestValueEEPvEEEENS_4hashIS2_EENS_8equal_toIS2_EELb1EEELi1ELb1EEC2B7v160006ENS_18__default_init_tagE, symObjAddr: 0x735C, symBinAddr: 0x10000B23C, symSize: 0x2C }
  - { offsetInCU: 0x220B8, offset: 0x220B8, size: 0x8, addend: 0x0, symName: __ZNSt3__122__unordered_map_hasherI7TestKeyNS_17__hash_value_typeIS1_NS_15__list_iteratorINS_4pairIS1_9TestValueEEPvEEEENS_4hashIS1_EENS_8equal_toIS1_EELb1EEC2B7v160006Ev, symObjAddr: 0x7388, symBinAddr: 0x10000B268, symSize: 0x14 }
  - { offsetInCU: 0x220E1, offset: 0x220E1, size: 0x8, addend: 0x0, symName: __ZNSt3__117__compressed_pairIfNS_21__unordered_map_equalI7TestKeyNS_17__hash_value_typeIS2_NS_15__list_iteratorINS_4pairIS2_9TestValueEEPvEEEENS_8equal_toIS2_EENS_4hashIS2_EELb1EEEEC2B7v160006IfNS_18__default_init_tagEEEOT_OT0_, symObjAddr: 0x739C, symBinAddr: 0x10000B27C, symSize: 0x40 }
  - { offsetInCU: 0x22138, offset: 0x22138, size: 0x8, addend: 0x0, symName: __ZNSt3__122__compressed_pair_elemIfLi0ELb0EEC2B7v160006IfvEEOT_, symObjAddr: 0x73DC, symBinAddr: 0x10000B2BC, symSize: 0x24 }
  - { offsetInCU: 0x22179, offset: 0x22179, size: 0x8, addend: 0x0, symName: __ZNSt3__122__compressed_pair_elemINS_21__unordered_map_equalI7TestKeyNS_17__hash_value_typeIS2_NS_15__list_iteratorINS_4pairIS2_9TestValueEEPvEEEENS_8equal_toIS2_EENS_4hashIS2_EELb1EEELi1ELb1EEC2B7v160006ENS_18__default_init_tagE, symObjAddr: 0x7400, symBinAddr: 0x10000B2E0, symSize: 0x2C }
  - { offsetInCU: 0x221AC, offset: 0x221AC, size: 0x8, addend: 0x0, symName: __ZNSt3__121__unordered_map_equalI7TestKeyNS_17__hash_value_typeIS1_NS_15__list_iteratorINS_4pairIS1_9TestValueEEPvEEEENS_8equal_toIS1_EENS_4hashIS1_EELb1EEC2B7v160006Ev, symObjAddr: 0x742C, symBinAddr: 0x10000B30C, symSize: 0x14 }
  - { offsetInCU: 0x221D5, offset: 0x221D5, size: 0x8, addend: 0x0, symName: __ZNSt3__14listINS_4pairI7TestKey9TestValueEENS_9allocatorIS4_EEEC2B7v160006Ev, symObjAddr: 0x7440, symBinAddr: 0x10000B320, symSize: 0x3C }
  - { offsetInCU: 0x221FE, offset: 0x221FE, size: 0x8, addend: 0x0, symName: __ZNSt3__110__list_impINS_4pairI7TestKey9TestValueEENS_9allocatorIS4_EEEC2Ev, symObjAddr: 0x747C, symBinAddr: 0x10000B35C, symSize: 0x50 }
  - { offsetInCU: 0x22229, offset: 0x22229, size: 0x8, addend: 0x0, symName: __ZNSt3__116__list_node_baseINS_4pairI7TestKey9TestValueEEPvEC1B7v160006Ev, symObjAddr: 0x74DC, symBinAddr: 0x10000B3BC, symSize: 0x2C }
  - { offsetInCU: 0x22252, offset: 0x22252, size: 0x8, addend: 0x0, symName: __ZNSt3__117__compressed_pairImNS_9allocatorINS_11__list_nodeINS_4pairI7TestKey9TestValueEEPvEEEEEC1B7v160006IiNS_18__default_init_tagEEEOT_OT0_, symObjAddr: 0x7508, symBinAddr: 0x10000B3E8, symSize: 0x3C }
  - { offsetInCU: 0x222A9, offset: 0x222A9, size: 0x8, addend: 0x0, symName: __ZNSt3__116__list_node_baseINS_4pairI7TestKey9TestValueEEPvEC2B7v160006Ev, symObjAddr: 0x7544, symBinAddr: 0x10000B424, symSize: 0x4C }
  - { offsetInCU: 0x222D2, offset: 0x222D2, size: 0x8, addend: 0x0, symName: __ZNSt3__117__compressed_pairImNS_9allocatorINS_11__list_nodeINS_4pairI7TestKey9TestValueEEPvEEEEEC2B7v160006IiNS_18__default_init_tagEEEOT_OT0_, symObjAddr: 0x7590, symBinAddr: 0x10000B470, symSize: 0x40 }
  - { offsetInCU: 0x22329, offset: 0x22329, size: 0x8, addend: 0x0, symName: __ZNSt3__122__compressed_pair_elemINS_9allocatorINS_11__list_nodeINS_4pairI7TestKey9TestValueEEPvEEEELi1ELb1EEC2B7v160006ENS_18__default_init_tagE, symObjAddr: 0x75D0, symBinAddr: 0x10000B4B0, symSize: 0x2C }
  - { offsetInCU: 0x2235C, offset: 0x2235C, size: 0x8, addend: 0x0, symName: __ZNSt3__19allocatorINS_11__list_nodeINS_4pairI7TestKey9TestValueEEPvEEEC2B7v160006Ev, symObjAddr: 0x75FC, symBinAddr: 0x10000B4DC, symSize: 0x2C }
  - { offsetInCU: 0x22385, offset: 0x22385, size: 0x8, addend: 0x0, symName: __ZNSt3__116__non_trivial_ifILb1ENS_9allocatorINS_11__list_nodeINS_4pairI7TestKey9TestValueEEPvEEEEEC2B7v160006Ev, symObjAddr: 0x7628, symBinAddr: 0x10000B508, symSize: 0x14 }
  - { offsetInCU: 0x223AD, offset: 0x223AD, size: 0x8, addend: 0x0, symName: __ZNSt3__113unordered_mapI7TestKeyNS_15__list_iteratorINS_4pairIS1_9TestValueEEPvEENS_4hashIS1_EENS_8equal_toIS1_EENS_9allocatorINS3_IKS1_S7_EEEEE4findB7v160006ERSD_, symObjAddr: 0x763C, symBinAddr: 0x10000B51C, symSize: 0x40 }
  - { offsetInCU: 0x223E0, offset: 0x223E0, size: 0x8, addend: 0x0, symName: __ZNSt3__113unordered_mapI7TestKeyNS_15__list_iteratorINS_4pairIS1_9TestValueEEPvEENS_4hashIS1_EENS_8equal_toIS1_EENS_9allocatorINS3_IKS1_S7_EEEEE3endB7v160006Ev, symObjAddr: 0x76AC, symBinAddr: 0x10000B58C, symSize: 0x38 }
  - { offsetInCU: 0x22404, offset: 0x22404, size: 0x8, addend: 0x0, symName: __ZNKSt3__113unordered_mapI7TestKeyNS_15__list_iteratorINS_4pairIS1_9TestValueEEPvEENS_4hashIS1_EENS_8equal_toIS1_EENS_9allocatorINS3_IKS1_S7_EEEEE4sizeB7v160006Ev, symObjAddr: 0x76E4, symBinAddr: 0x10000B5C4, symSize: 0x24 }
  - { offsetInCU: 0x22428, offset: 0x22428, size: 0x8, addend: 0x0, symName: __ZNSt3__113unordered_mapI7TestKeyNS_15__list_iteratorINS_4pairIS1_9TestValueEEPvEENS_4hashIS1_EENS_8equal_toIS1_EENS_9allocatorINS3_IKS1_S7_EEEEE5eraseB7v160006ERSD_, symObjAddr: 0x7708, symBinAddr: 0x10000B5E8, symSize: 0x2C }
  - { offsetInCU: 0x2245B, offset: 0x2245B, size: 0x8, addend: 0x0, symName: __ZNSt3__14listINS_4pairI7TestKey9TestValueEENS_9allocatorIS4_EEE5frontB7v160006Ev, symObjAddr: 0x7734, symBinAddr: 0x10000B614, symSize: 0x2C }
  - { offsetInCU: 0x22480, offset: 0x22480, size: 0x8, addend: 0x0, symName: __ZNSt3__14listINS_4pairI7TestKey9TestValueEENS_9allocatorIS4_EEE5eraseENS_21__list_const_iteratorIS4_PvEE, symObjAddr: 0x7760, symBinAddr: 0x10000B640, symSize: 0xA4 }
  - { offsetInCU: 0x224F1, offset: 0x224F1, size: 0x8, addend: 0x0, symName: __ZNSt3__14listINS_4pairI7TestKey9TestValueEENS_9allocatorIS4_EEE5beginB7v160006Ev, symObjAddr: 0x7804, symBinAddr: 0x10000B6E4, symSize: 0x2C }
  - { offsetInCU: 0x22516, offset: 0x22516, size: 0x8, addend: 0x0, symName: __ZNSt3__121__list_const_iteratorINS_4pairI7TestKey9TestValueEEPvEC1B7v160006ERKNS_15__list_iteratorIS4_S5_EE, symObjAddr: 0x7830, symBinAddr: 0x10000B710, symSize: 0x34 }
  - { offsetInCU: 0x2254E, offset: 0x2254E, size: 0x8, addend: 0x0, symName: __ZNSt3__14listINS_4pairI7TestKey9TestValueEENS_9allocatorIS4_EEE9push_backEOS4_, symObjAddr: 0x7864, symBinAddr: 0x10000B744, symSize: 0xF4 }
  - { offsetInCU: 0x225A2, offset: 0x225A2, size: 0x8, addend: 0x0, symName: __ZNSt3__14pairI7TestKey9TestValueEC1B7v160006ILb1ELPv0EEERKS1_RKS2_, symObjAddr: 0x7958, symBinAddr: 0x10000B838, symSize: 0x3C }
  - { offsetInCU: 0x225F6, offset: 0x225F6, size: 0x8, addend: 0x0, symName: __ZNSt3__14listINS_4pairI7TestKey9TestValueEENS_9allocatorIS4_EEE3endB7v160006Ev, symObjAddr: 0x79EC, symBinAddr: 0x10000B8CC, symSize: 0x2C }
  - { offsetInCU: 0x2261B, offset: 0x2261B, size: 0x8, addend: 0x0, symName: __ZNSt3__113unordered_mapI7TestKeyNS_15__list_iteratorINS_4pairIS1_9TestValueEEPvEENS_4hashIS1_EENS_8equal_toIS1_EENS_9allocatorINS3_IKS1_S7_EEEEEixERSD_, symObjAddr: 0x7A18, symBinAddr: 0x10000B8F8, symSize: 0x80 }
  - { offsetInCU: 0x22650, offset: 0x22650, size: 0x8, addend: 0x0, symName: __ZNKSt3__119__hash_map_iteratorINS_15__hash_iteratorIPNS_11__hash_nodeINS_17__hash_value_typeI7TestKeyNS_15__list_iteratorINS_4pairIS4_9TestValueEEPvEEEES9_EEEEEptB7v160006Ev, symObjAddr: 0x7A98, symBinAddr: 0x10000B978, symSize: 0x2C }
  - { offsetInCU: 0x22674, offset: 0x22674, size: 0x8, addend: 0x0, symName: __ZNKSt3__115__list_iteratorINS_4pairI7TestKey9TestValueEEPvEdeB7v160006Ev, symObjAddr: 0x7AC4, symBinAddr: 0x10000B9A4, symSize: 0x2C }
  - { offsetInCU: 0x22699, offset: 0x22699, size: 0x8, addend: 0x0, symName: __ZNSt3__14pairI7TestKey9TestValueEC1ERKS3_, symObjAddr: 0x7AF0, symBinAddr: 0x10000B9D0, symSize: 0x34 }
  - { offsetInCU: 0x226CC, offset: 0x226CC, size: 0x8, addend: 0x0, symName: __ZNSt3__14listINS_4pairI7TestKey9TestValueEENS_9allocatorIS4_EEE9push_backERKS4_, symObjAddr: 0x7B24, symBinAddr: 0x10000BA04, symSize: 0xEC }
  - { offsetInCU: 0x2271F, offset: 0x2271F, size: 0x8, addend: 0x0, symName: __ZNKSt3__115__list_iteratorINS_4pairI7TestKey9TestValueEEPvEptB7v160006Ev, symObjAddr: 0x7C10, symBinAddr: 0x10000BAF0, symSize: 0x30 }
  - { offsetInCU: 0x22749, offset: 0x22749, size: 0x8, addend: 0x0, symName: __ZN9TestValueaSERKS_, symObjAddr: 0x7C40, symBinAddr: 0x10000BB20, symSize: 0x34 }
  - { offsetInCU: 0x22779, offset: 0x22779, size: 0x8, addend: 0x0, symName: __ZNSt3__112__hash_tableINS_17__hash_value_typeI7TestKeyNS_15__list_iteratorINS_4pairIS2_9TestValueEEPvEEEENS_22__unordered_map_hasherIS2_S9_NS_4hashIS2_EENS_8equal_toIS2_EELb1EEENS_21__unordered_map_equalIS2_S9_SE_SC_Lb1EEENS_9allocatorIS9_EEE4findIS2_EENS_15__hash_iteratorIPNS_11__hash_nodeIS9_S7_EEEERKT_, symObjAddr: 0x7C74, symBinAddr: 0x10000BB54, symSize: 0x1B4 }
  - { offsetInCU: 0x22802, offset: 0x22802, size: 0x8, addend: 0x0, symName: __ZNSt3__119__hash_map_iteratorINS_15__hash_iteratorIPNS_11__hash_nodeINS_17__hash_value_typeI7TestKeyNS_15__list_iteratorINS_4pairIS4_9TestValueEEPvEEEES9_EEEEEC1B7v160006ESE_, symObjAddr: 0x7E28, symBinAddr: 0x10000BD08, symSize: 0x34 }
  - { offsetInCU: 0x22839, offset: 0x22839, size: 0x8, addend: 0x0, symName: __ZNSt3__112__hash_tableINS_17__hash_value_typeI7TestKeyNS_15__list_iteratorINS_4pairIS2_9TestValueEEPvEEEENS_22__unordered_map_hasherIS2_S9_NS_4hashIS2_EENS_8equal_toIS2_EELb1EEENS_21__unordered_map_equalIS2_S9_SE_SC_Lb1EEENS_9allocatorIS9_EEE13hash_functionB7v160006Ev, symObjAddr: 0x7E5C, symBinAddr: 0x10000BD3C, symSize: 0x28 }
  - { offsetInCU: 0x2285D, offset: 0x2285D, size: 0x8, addend: 0x0, symName: __ZNKSt3__122__unordered_map_hasherI7TestKeyNS_17__hash_value_typeIS1_NS_15__list_iteratorINS_4pairIS1_9TestValueEEPvEEEENS_4hashIS1_EENS_8equal_toIS1_EELb1EEclB7v160006ERKS1_, symObjAddr: 0x7E84, symBinAddr: 0x10000BD64, symSize: 0x2C }
  - { offsetInCU: 0x22890, offset: 0x22890, size: 0x8, addend: 0x0, symName: __ZNKSt3__112__hash_tableINS_17__hash_value_typeI7TestKeyNS_15__list_iteratorINS_4pairIS2_9TestValueEEPvEEEENS_22__unordered_map_hasherIS2_S9_NS_4hashIS2_EENS_8equal_toIS2_EELb1EEENS_21__unordered_map_equalIS2_S9_SE_SC_Lb1EEENS_9allocatorIS9_EEE12bucket_countB7v160006Ev, symObjAddr: 0x7EB0, symBinAddr: 0x10000BD90, symSize: 0x28 }
  - { offsetInCU: 0x228B4, offset: 0x228B4, size: 0x8, addend: 0x0, symName: __ZNKSt3__110unique_ptrIA_PNS_16__hash_node_baseIPNS_11__hash_nodeINS_17__hash_value_typeI7TestKeyNS_15__list_iteratorINS_4pairIS4_9TestValueEEPvEEEES9_EEEENS_25__bucket_list_deallocatorINS_9allocatorISF_EEEEEixB7v160006Em, symObjAddr: 0x7F70, symBinAddr: 0x10000BE50, symSize: 0x34 }
  - { offsetInCU: 0x228E8, offset: 0x228E8, size: 0x8, addend: 0x0, symName: __ZNKSt3__116__hash_node_baseIPNS_11__hash_nodeINS_17__hash_value_typeI7TestKeyNS_15__list_iteratorINS_4pairIS3_9TestValueEEPvEEEES8_EEE6__hashB7v160006Ev, symObjAddr: 0x7FA4, symBinAddr: 0x10000BE84, symSize: 0x18 }
  - { offsetInCU: 0x2290C, offset: 0x2290C, size: 0x8, addend: 0x0, symName: __ZNSt3__112__hash_tableINS_17__hash_value_typeI7TestKeyNS_15__list_iteratorINS_4pairIS2_9TestValueEEPvEEEENS_22__unordered_map_hasherIS2_S9_NS_4hashIS2_EENS_8equal_toIS2_EELb1EEENS_21__unordered_map_equalIS2_S9_SE_SC_Lb1EEENS_9allocatorIS9_EEE6key_eqB7v160006Ev, symObjAddr: 0x7FBC, symBinAddr: 0x10000BE9C, symSize: 0x28 }
  - { offsetInCU: 0x22930, offset: 0x22930, size: 0x8, addend: 0x0, symName: __ZNKSt3__121__unordered_map_equalI7TestKeyNS_17__hash_value_typeIS1_NS_15__list_iteratorINS_4pairIS1_9TestValueEEPvEEEENS_8equal_toIS1_EENS_4hashIS1_EELb1EEclB7v160006ERKS9_RKS1_, symObjAddr: 0x7FE4, symBinAddr: 0x10000BEC4, symSize: 0x48 }
  - { offsetInCU: 0x22973, offset: 0x22973, size: 0x8, addend: 0x0, symName: __ZNSt3__115__hash_iteratorIPNS_11__hash_nodeINS_17__hash_value_typeI7TestKeyNS_15__list_iteratorINS_4pairIS3_9TestValueEEPvEEEES8_EEEC1B7v160006EPNS_16__hash_node_baseISC_EEPKv, symObjAddr: 0x802C, symBinAddr: 0x10000BF0C, symSize: 0x3C }
  - { offsetInCU: 0x229BA, offset: 0x229BA, size: 0x8, addend: 0x0, symName: __ZNSt3__112__hash_tableINS_17__hash_value_typeI7TestKeyNS_15__list_iteratorINS_4pairIS2_9TestValueEEPvEEEENS_22__unordered_map_hasherIS2_S9_NS_4hashIS2_EENS_8equal_toIS2_EELb1EEENS_21__unordered_map_equalIS2_S9_SE_SC_Lb1EEENS_9allocatorIS9_EEE3endEv, symObjAddr: 0x8068, symBinAddr: 0x10000BF48, symSize: 0x30 }
  - { offsetInCU: 0x229E0, offset: 0x229E0, size: 0x8, addend: 0x0, symName: __ZNSt3__117__compressed_pairImNS_22__unordered_map_hasherI7TestKeyNS_17__hash_value_typeIS2_NS_15__list_iteratorINS_4pairIS2_9TestValueEEPvEEEENS_4hashIS2_EENS_8equal_toIS2_EELb1EEEE6secondB7v160006Ev, symObjAddr: 0x8098, symBinAddr: 0x10000BF78, symSize: 0x24 }
  - { offsetInCU: 0x22A05, offset: 0x22A05, size: 0x8, addend: 0x0, symName: __ZNSt3__122__compressed_pair_elemINS_22__unordered_map_hasherI7TestKeyNS_17__hash_value_typeIS2_NS_15__list_iteratorINS_4pairIS2_9TestValueEEPvEEEENS_4hashIS2_EENS_8equal_toIS2_EELb1EEELi1ELb1EE5__getB7v160006Ev, symObjAddr: 0x80BC, symBinAddr: 0x10000BF9C, symSize: 0x14 }
  - { offsetInCU: 0x22A2A, offset: 0x22A2A, size: 0x8, addend: 0x0, symName: __ZNKSt3__14hashI7TestKeyEclERKS1_, symObjAddr: 0x80D0, symBinAddr: 0x10000BFB0, symSize: 0x30 }
  - { offsetInCU: 0x22A5C, offset: 0x22A5C, size: 0x8, addend: 0x0, symName: __ZNKSt3__110unique_ptrIA_PNS_16__hash_node_baseIPNS_11__hash_nodeINS_17__hash_value_typeI7TestKeyNS_15__list_iteratorINS_4pairIS4_9TestValueEEPvEEEES9_EEEENS_25__bucket_list_deallocatorINS_9allocatorISF_EEEEE11get_deleterB7v160006Ev, symObjAddr: 0x8100, symBinAddr: 0x10000BFE0, symSize: 0x24 }
  - { offsetInCU: 0x22A80, offset: 0x22A80, size: 0x8, addend: 0x0, symName: __ZNKSt3__125__bucket_list_deallocatorINS_9allocatorIPNS_16__hash_node_baseIPNS_11__hash_nodeINS_17__hash_value_typeI7TestKeyNS_15__list_iteratorINS_4pairIS5_9TestValueEEPvEEEESA_EEEEEEE4sizeB7v160006Ev, symObjAddr: 0x8124, symBinAddr: 0x10000C004, symSize: 0x28 }
  - { offsetInCU: 0x22AA4, offset: 0x22AA4, size: 0x8, addend: 0x0, symName: __ZNKSt3__117__compressed_pairIPPNS_16__hash_node_baseIPNS_11__hash_nodeINS_17__hash_value_typeI7TestKeyNS_15__list_iteratorINS_4pairIS4_9TestValueEEPvEEEES9_EEEENS_25__bucket_list_deallocatorINS_9allocatorISF_EEEEE6secondB7v160006Ev, symObjAddr: 0x814C, symBinAddr: 0x10000C02C, symSize: 0x28 }
  - { offsetInCU: 0x22AC9, offset: 0x22AC9, size: 0x8, addend: 0x0, symName: __ZNKSt3__122__compressed_pair_elemINS_25__bucket_list_deallocatorINS_9allocatorIPNS_16__hash_node_baseIPNS_11__hash_nodeINS_17__hash_value_typeI7TestKeyNS_15__list_iteratorINS_4pairIS6_9TestValueEEPvEEEESB_EEEEEEEELi1ELb0EE5__getB7v160006Ev, symObjAddr: 0x8174, symBinAddr: 0x10000C054, symSize: 0x14 }
  - { offsetInCU: 0x22AED, offset: 0x22AED, size: 0x8, addend: 0x0, symName: __ZNKSt3__117__compressed_pairImNS_9allocatorIPNS_16__hash_node_baseIPNS_11__hash_nodeINS_17__hash_value_typeI7TestKeyNS_15__list_iteratorINS_4pairIS5_9TestValueEEPvEEEESA_EEEEEEE5firstB7v160006Ev, symObjAddr: 0x8188, symBinAddr: 0x10000C068, symSize: 0x24 }
  - { offsetInCU: 0x22B11, offset: 0x22B11, size: 0x8, addend: 0x0, symName: __ZNKSt3__117__compressed_pairIPPNS_16__hash_node_baseIPNS_11__hash_nodeINS_17__hash_value_typeI7TestKeyNS_15__list_iteratorINS_4pairIS4_9TestValueEEPvEEEES9_EEEENS_25__bucket_list_deallocatorINS_9allocatorISF_EEEEE5firstB7v160006Ev, symObjAddr: 0x81AC, symBinAddr: 0x10000C08C, symSize: 0x24 }
  - { offsetInCU: 0x22B36, offset: 0x22B36, size: 0x8, addend: 0x0, symName: __ZNKSt3__122__compressed_pair_elemIPPNS_16__hash_node_baseIPNS_11__hash_nodeINS_17__hash_value_typeI7TestKeyNS_15__list_iteratorINS_4pairIS4_9TestValueEEPvEEEES9_EEEELi0ELb0EE5__getB7v160006Ev, symObjAddr: 0x81D0, symBinAddr: 0x10000C0B0, symSize: 0x14 }
  - { offsetInCU: 0x22B5A, offset: 0x22B5A, size: 0x8, addend: 0x0, symName: __ZNSt3__117__compressed_pairIfNS_21__unordered_map_equalI7TestKeyNS_17__hash_value_typeIS2_NS_15__list_iteratorINS_4pairIS2_9TestValueEEPvEEEENS_8equal_toIS2_EENS_4hashIS2_EELb1EEEE6secondB7v160006Ev, symObjAddr: 0x81E4, symBinAddr: 0x10000C0C4, symSize: 0x24 }
  - { offsetInCU: 0x22B7F, offset: 0x22B7F, size: 0x8, addend: 0x0, symName: __ZNSt3__122__compressed_pair_elemINS_21__unordered_map_equalI7TestKeyNS_17__hash_value_typeIS2_NS_15__list_iteratorINS_4pairIS2_9TestValueEEPvEEEENS_8equal_toIS2_EENS_4hashIS2_EELb1EEELi1ELb1EE5__getB7v160006Ev, symObjAddr: 0x8208, symBinAddr: 0x10000C0E8, symSize: 0x14 }
  - { offsetInCU: 0x22BA3, offset: 0x22BA3, size: 0x8, addend: 0x0, symName: __ZNKSt3__18equal_toI7TestKeyEclB7v160006ERKS1_S4_, symObjAddr: 0x821C, symBinAddr: 0x10000C0FC, symSize: 0x34 }
  - { offsetInCU: 0x22BE5, offset: 0x22BE5, size: 0x8, addend: 0x0, symName: __ZNKSt3__117__hash_value_typeI7TestKeyNS_15__list_iteratorINS_4pairIS1_9TestValueEEPvEEE11__get_valueB7v160006Ev, symObjAddr: 0x8250, symBinAddr: 0x10000C130, symSize: 0x24 }
  - { offsetInCU: 0x22C0A, offset: 0x22C0A, size: 0x8, addend: 0x0, symName: __ZNSt3__115__hash_iteratorIPNS_11__hash_nodeINS_17__hash_value_typeI7TestKeyNS_15__list_iteratorINS_4pairIS3_9TestValueEEPvEEEES8_EEEC2B7v160006EPNS_16__hash_node_baseISC_EEPKv, symObjAddr: 0x82AC, symBinAddr: 0x10000C18C, symSize: 0x24 }
  - { offsetInCU: 0x22C51, offset: 0x22C51, size: 0x8, addend: 0x0, symName: __ZNSt3__119__hash_map_iteratorINS_15__hash_iteratorIPNS_11__hash_nodeINS_17__hash_value_typeI7TestKeyNS_15__list_iteratorINS_4pairIS4_9TestValueEEPvEEEES9_EEEEEC2B7v160006ESE_, symObjAddr: 0x82D0, symBinAddr: 0x10000C1B0, symSize: 0x20 }
  - { offsetInCU: 0x22C88, offset: 0x22C88, size: 0x8, addend: 0x0, symName: __ZNKSt3__112__hash_tableINS_17__hash_value_typeI7TestKeyNS_15__list_iteratorINS_4pairIS2_9TestValueEEPvEEEENS_22__unordered_map_hasherIS2_S9_NS_4hashIS2_EENS_8equal_toIS2_EELb1EEENS_21__unordered_map_equalIS2_S9_SE_SC_Lb1EEENS_9allocatorIS9_EEE4sizeB7v160006Ev, symObjAddr: 0x8320, symBinAddr: 0x10000C200, symSize: 0x2C }
  - { offsetInCU: 0x22CAC, offset: 0x22CAC, size: 0x8, addend: 0x0, symName: __ZNKSt3__117__compressed_pairImNS_22__unordered_map_hasherI7TestKeyNS_17__hash_value_typeIS2_NS_15__list_iteratorINS_4pairIS2_9TestValueEEPvEEEENS_4hashIS2_EENS_8equal_toIS2_EELb1EEEE5firstB7v160006Ev, symObjAddr: 0x834C, symBinAddr: 0x10000C22C, symSize: 0x24 }
  - { offsetInCU: 0x22CD1, offset: 0x22CD1, size: 0x8, addend: 0x0, symName: __ZNSt3__112__hash_tableINS_17__hash_value_typeI7TestKeyNS_15__list_iteratorINS_4pairIS2_9TestValueEEPvEEEENS_22__unordered_map_hasherIS2_S9_NS_4hashIS2_EENS_8equal_toIS2_EELb1EEENS_21__unordered_map_equalIS2_S9_SE_SC_Lb1EEENS_9allocatorIS9_EEE14__erase_uniqueIS2_EEmRKT_, symObjAddr: 0x8370, symBinAddr: 0x10000C250, symSize: 0x98 }
  - { offsetInCU: 0x22D1F, offset: 0x22D1F, size: 0x8, addend: 0x0, symName: __ZNSt3__112__hash_tableINS_17__hash_value_typeI7TestKeyNS_15__list_iteratorINS_4pairIS2_9TestValueEEPvEEEENS_22__unordered_map_hasherIS2_S9_NS_4hashIS2_EENS_8equal_toIS2_EELb1EEENS_21__unordered_map_equalIS2_S9_SE_SC_Lb1EEENS_9allocatorIS9_EEE5eraseENS_21__hash_const_iteratorIPNS_11__hash_nodeIS9_S7_EEEE, symObjAddr: 0x8408, symBinAddr: 0x10000C2E8, symSize: 0x70 }
  - { offsetInCU: 0x22D73, offset: 0x22D73, size: 0x8, addend: 0x0, symName: __ZNSt3__121__hash_const_iteratorIPNS_11__hash_nodeINS_17__hash_value_typeI7TestKeyNS_15__list_iteratorINS_4pairIS3_9TestValueEEPvEEEES8_EEEC1B7v160006ERKNS_15__hash_iteratorISC_EE, symObjAddr: 0x8478, symBinAddr: 0x10000C358, symSize: 0x34 }
  - { offsetInCU: 0x22DAB, offset: 0x22DAB, size: 0x8, addend: 0x0, symName: __ZNSt3__115__hash_iteratorIPNS_11__hash_nodeINS_17__hash_value_typeI7TestKeyNS_15__list_iteratorINS_4pairIS3_9TestValueEEPvEEEES8_EEEppB7v160006Ev, symObjAddr: 0x84AC, symBinAddr: 0x10000C38C, symSize: 0x20 }
  - { offsetInCU: 0x22DD0, offset: 0x22DD0, size: 0x8, addend: 0x0, symName: __ZNSt3__112__hash_tableINS_17__hash_value_typeI7TestKeyNS_15__list_iteratorINS_4pairIS2_9TestValueEEPvEEEENS_22__unordered_map_hasherIS2_S9_NS_4hashIS2_EENS_8equal_toIS2_EELb1EEENS_21__unordered_map_equalIS2_S9_SE_SC_Lb1EEENS_9allocatorIS9_EEE6removeENS_21__hash_const_iteratorIPNS_11__hash_nodeIS9_S7_EEEE, symObjAddr: 0x84CC, symBinAddr: 0x10000C3AC, symSize: 0x220 }
  - { offsetInCU: 0x22E60, offset: 0x22E60, size: 0x8, addend: 0x0, symName: __ZNSt3__110unique_ptrINS_11__hash_nodeINS_17__hash_value_typeI7TestKeyNS_15__list_iteratorINS_4pairIS3_9TestValueEEPvEEEES8_EENS_22__hash_node_destructorINS_9allocatorISB_EEEEED1B7v160006Ev, symObjAddr: 0x86EC, symBinAddr: 0x10000C5CC, symSize: 0x2C }
  - { offsetInCU: 0x22E88, offset: 0x22E88, size: 0x8, addend: 0x0, symName: __ZNSt3__116__hash_node_baseIPNS_11__hash_nodeINS_17__hash_value_typeI7TestKeyNS_15__list_iteratorINS_4pairIS3_9TestValueEEPvEEEES8_EEE5__ptrB7v160006Ev, symObjAddr: 0x8718, symBinAddr: 0x10000C5F8, symSize: 0x24 }
  - { offsetInCU: 0x22EAC, offset: 0x22EAC, size: 0x8, addend: 0x0, symName: __ZNSt3__112__hash_tableINS_17__hash_value_typeI7TestKeyNS_15__list_iteratorINS_4pairIS2_9TestValueEEPvEEEENS_22__unordered_map_hasherIS2_S9_NS_4hashIS2_EENS_8equal_toIS2_EELb1EEENS_21__unordered_map_equalIS2_S9_SE_SC_Lb1EEENS_9allocatorIS9_EEE4sizeB7v160006Ev, symObjAddr: 0x873C, symBinAddr: 0x10000C61C, symSize: 0x28 }
  - { offsetInCU: 0x22ED1, offset: 0x22ED1, size: 0x8, addend: 0x0, symName: __ZNSt3__122__hash_node_destructorINS_9allocatorINS_11__hash_nodeINS_17__hash_value_typeI7TestKeyNS_15__list_iteratorINS_4pairIS4_9TestValueEEPvEEEES9_EEEEEC1B7v160006ERSD_b, symObjAddr: 0x8764, symBinAddr: 0x10000C644, symSize: 0x48 }
  - { offsetInCU: 0x22F1D, offset: 0x22F1D, size: 0x8, addend: 0x0, symName: __ZNSt3__110unique_ptrINS_11__hash_nodeINS_17__hash_value_typeI7TestKeyNS_15__list_iteratorINS_4pairIS3_9TestValueEEPvEEEES8_EENS_22__hash_node_destructorINS_9allocatorISB_EEEEEC1B7v160006ILb1EvEEPSB_NS_16__dependent_typeINS_27__unique_ptr_deleter_sfinaeISF_EEXT_EE20__good_rval_ref_typeE, symObjAddr: 0x87AC, symBinAddr: 0x10000C68C, symSize: 0x3C }
  - { offsetInCU: 0x22F6C, offset: 0x22F6C, size: 0x8, addend: 0x0, symName: __ZNSt3__117__compressed_pairImNS_22__unordered_map_hasherI7TestKeyNS_17__hash_value_typeIS2_NS_15__list_iteratorINS_4pairIS2_9TestValueEEPvEEEENS_4hashIS2_EENS_8equal_toIS2_EELb1EEEE5firstB7v160006Ev, symObjAddr: 0x87E8, symBinAddr: 0x10000C6C8, symSize: 0x24 }
  - { offsetInCU: 0x22F91, offset: 0x22F91, size: 0x8, addend: 0x0, symName: __ZNSt3__122__hash_node_destructorINS_9allocatorINS_11__hash_nodeINS_17__hash_value_typeI7TestKeyNS_15__list_iteratorINS_4pairIS4_9TestValueEEPvEEEES9_EEEEEC2B7v160006ERSD_b, symObjAddr: 0x880C, symBinAddr: 0x10000C6EC, symSize: 0x38 }
  - { offsetInCU: 0x22FD8, offset: 0x22FD8, size: 0x8, addend: 0x0, symName: __ZNSt3__110unique_ptrINS_11__hash_nodeINS_17__hash_value_typeI7TestKeyNS_15__list_iteratorINS_4pairIS3_9TestValueEEPvEEEES8_EENS_22__hash_node_destructorINS_9allocatorISB_EEEEEC2B7v160006ILb1EvEEPSB_NS_16__dependent_typeINS_27__unique_ptr_deleter_sfinaeISF_EEXT_EE20__good_rval_ref_typeE, symObjAddr: 0x8844, symBinAddr: 0x10000C724, symSize: 0x48 }
  - { offsetInCU: 0x23028, offset: 0x23028, size: 0x8, addend: 0x0, symName: __ZNSt3__117__compressed_pairIPNS_11__hash_nodeINS_17__hash_value_typeI7TestKeyNS_15__list_iteratorINS_4pairIS3_9TestValueEEPvEEEES8_EENS_22__hash_node_destructorINS_9allocatorISB_EEEEEC1B7v160006IRSC_SG_EEOT_OT0_, symObjAddr: 0x888C, symBinAddr: 0x10000C76C, symSize: 0x3C }
  - { offsetInCU: 0x2307F, offset: 0x2307F, size: 0x8, addend: 0x0, symName: __ZNSt3__117__compressed_pairIPNS_11__hash_nodeINS_17__hash_value_typeI7TestKeyNS_15__list_iteratorINS_4pairIS3_9TestValueEEPvEEEES8_EENS_22__hash_node_destructorINS_9allocatorISB_EEEEEC2B7v160006IRSC_SG_EEOT_OT0_, symObjAddr: 0x88C8, symBinAddr: 0x10000C7A8, symSize: 0x48 }
  - { offsetInCU: 0x230D6, offset: 0x230D6, size: 0x8, addend: 0x0, symName: __ZNSt3__122__compressed_pair_elemIPNS_11__hash_nodeINS_17__hash_value_typeI7TestKeyNS_15__list_iteratorINS_4pairIS3_9TestValueEEPvEEEES8_EELi0ELb0EEC2B7v160006IRSC_vEEOT_, symObjAddr: 0x8910, symBinAddr: 0x10000C7F0, symSize: 0x24 }
  - { offsetInCU: 0x23117, offset: 0x23117, size: 0x8, addend: 0x0, symName: __ZNSt3__122__compressed_pair_elemINS_22__hash_node_destructorINS_9allocatorINS_11__hash_nodeINS_17__hash_value_typeI7TestKeyNS_15__list_iteratorINS_4pairIS5_9TestValueEEPvEEEESA_EEEEEELi1ELb0EEC2B7v160006ISF_vEEOT_, symObjAddr: 0x8934, symBinAddr: 0x10000C814, symSize: 0x24 }
  - { offsetInCU: 0x23158, offset: 0x23158, size: 0x8, addend: 0x0, symName: __ZNSt3__110unique_ptrINS_11__hash_nodeINS_17__hash_value_typeI7TestKeyNS_15__list_iteratorINS_4pairIS3_9TestValueEEPvEEEES8_EENS_22__hash_node_destructorINS_9allocatorISB_EEEEED2B7v160006Ev, symObjAddr: 0x8958, symBinAddr: 0x10000C838, symSize: 0x30 }
  - { offsetInCU: 0x23180, offset: 0x23180, size: 0x8, addend: 0x0, symName: __ZNSt3__110unique_ptrINS_11__hash_nodeINS_17__hash_value_typeI7TestKeyNS_15__list_iteratorINS_4pairIS3_9TestValueEEPvEEEES8_EENS_22__hash_node_destructorINS_9allocatorISB_EEEEE5resetB7v160006EPSB_, symObjAddr: 0x8988, symBinAddr: 0x10000C868, symSize: 0x78 }
  - { offsetInCU: 0x231C2, offset: 0x231C2, size: 0x8, addend: 0x0, symName: __ZNSt3__117__compressed_pairIPNS_11__hash_nodeINS_17__hash_value_typeI7TestKeyNS_15__list_iteratorINS_4pairIS3_9TestValueEEPvEEEES8_EENS_22__hash_node_destructorINS_9allocatorISB_EEEEE5firstB7v160006Ev, symObjAddr: 0x8A00, symBinAddr: 0x10000C8E0, symSize: 0x24 }
  - { offsetInCU: 0x231E6, offset: 0x231E6, size: 0x8, addend: 0x0, symName: __ZNSt3__117__compressed_pairIPNS_11__hash_nodeINS_17__hash_value_typeI7TestKeyNS_15__list_iteratorINS_4pairIS3_9TestValueEEPvEEEES8_EENS_22__hash_node_destructorINS_9allocatorISB_EEEEE6secondB7v160006Ev, symObjAddr: 0x8A24, symBinAddr: 0x10000C904, symSize: 0x28 }
  - { offsetInCU: 0x2320A, offset: 0x2320A, size: 0x8, addend: 0x0, symName: __ZNSt3__122__hash_node_destructorINS_9allocatorINS_11__hash_nodeINS_17__hash_value_typeI7TestKeyNS_15__list_iteratorINS_4pairIS4_9TestValueEEPvEEEES9_EEEEEclB7v160006EPSC_, symObjAddr: 0x8A4C, symBinAddr: 0x10000C92C, symSize: 0x98 }
  - { offsetInCU: 0x2323E, offset: 0x2323E, size: 0x8, addend: 0x0, symName: __ZNSt3__122__compressed_pair_elemIPNS_11__hash_nodeINS_17__hash_value_typeI7TestKeyNS_15__list_iteratorINS_4pairIS3_9TestValueEEPvEEEES8_EELi0ELb0EE5__getB7v160006Ev, symObjAddr: 0x8AE4, symBinAddr: 0x10000C9C4, symSize: 0x14 }
  - { offsetInCU: 0x23263, offset: 0x23263, size: 0x8, addend: 0x0, symName: __ZNSt3__122__compressed_pair_elemINS_22__hash_node_destructorINS_9allocatorINS_11__hash_nodeINS_17__hash_value_typeI7TestKeyNS_15__list_iteratorINS_4pairIS5_9TestValueEEPvEEEESA_EEEEEELi1ELb0EE5__getB7v160006Ev, symObjAddr: 0x8AF8, symBinAddr: 0x10000C9D8, symSize: 0x14 }
  - { offsetInCU: 0x23288, offset: 0x23288, size: 0x8, addend: 0x0, symName: __ZNSt3__121__hash_const_iteratorIPNS_11__hash_nodeINS_17__hash_value_typeI7TestKeyNS_15__list_iteratorINS_4pairIS3_9TestValueEEPvEEEES8_EEEC2B7v160006ERKNS_15__hash_iteratorISC_EE, symObjAddr: 0x8B0C, symBinAddr: 0x10000C9EC, symSize: 0x24 }
  - { offsetInCU: 0x232C0, offset: 0x232C0, size: 0x8, addend: 0x0, symName: __ZNSt3__115__list_iteratorINS_4pairI7TestKey9TestValueEEPvEC1B7v160006EPNS_16__list_node_baseIS4_S5_EEPKv, symObjAddr: 0x8B30, symBinAddr: 0x10000CA10, symSize: 0x3C }
  - { offsetInCU: 0x23307, offset: 0x23307, size: 0x8, addend: 0x0, symName: __ZNSt3__115__list_iteratorINS_4pairI7TestKey9TestValueEEPvEC2B7v160006EPNS_16__list_node_baseIS4_S5_EEPKv, symObjAddr: 0x8B6C, symBinAddr: 0x10000CA4C, symSize: 0x24 }
  - { offsetInCU: 0x2334D, offset: 0x2334D, size: 0x8, addend: 0x0, symName: __ZNSt3__110__list_impINS_4pairI7TestKey9TestValueEENS_9allocatorIS4_EEE5beginB7v160006Ev, symObjAddr: 0x8B90, symBinAddr: 0x10000CA70, symSize: 0x30 }
  - { offsetInCU: 0x23372, offset: 0x23372, size: 0x8, addend: 0x0, symName: __ZNSt3__121__list_const_iteratorINS_4pairI7TestKey9TestValueEEPvEC2B7v160006ERKNS_15__list_iteratorIS4_S5_EE, symObjAddr: 0x8BC0, symBinAddr: 0x10000CAA0, symSize: 0x24 }
  - { offsetInCU: 0x233A9, offset: 0x233A9, size: 0x8, addend: 0x0, symName: __ZNSt3__14listINS_4pairI7TestKey9TestValueEENS_9allocatorIS4_EEE15__allocate_nodeB7v160006ERNS5_INS_11__list_nodeIS4_PvEEEE, symObjAddr: 0x8BE4, symBinAddr: 0x10000CAC4, symSize: 0x70 }
  - { offsetInCU: 0x233EC, offset: 0x233EC, size: 0x8, addend: 0x0, symName: __ZNSt3__116allocator_traitsINS_9allocatorINS_11__list_nodeINS_4pairI7TestKey9TestValueEEPvEEEEE9constructB7v160006IS6_JS6_EvvEEvRS9_PT_DpOT0_, symObjAddr: 0x8C54, symBinAddr: 0x10000CB34, symSize: 0x30 }
  - { offsetInCU: 0x23440, offset: 0x23440, size: 0x8, addend: 0x0, symName: __ZNKSt3__110unique_ptrINS_11__list_nodeINS_4pairI7TestKey9TestValueEEPvEENS_22__allocator_destructorINS_9allocatorIS7_EEEEEptB7v160006Ev, symObjAddr: 0x8C84, symBinAddr: 0x10000CB64, symSize: 0x28 }
  - { offsetInCU: 0x23465, offset: 0x23465, size: 0x8, addend: 0x0, symName: __ZNSt3__14listINS_4pairI7TestKey9TestValueEENS_9allocatorIS4_EEE20__link_nodes_at_backEPNS_16__list_node_baseIS4_PvEESB_, symObjAddr: 0x8CAC, symBinAddr: 0x10000CB8C, symSize: 0x60 }
  - { offsetInCU: 0x234A9, offset: 0x234A9, size: 0x8, addend: 0x0, symName: __ZNKSt3__110unique_ptrINS_11__list_nodeINS_4pairI7TestKey9TestValueEEPvEENS_22__allocator_destructorINS_9allocatorIS7_EEEEE3getB7v160006Ev, symObjAddr: 0x8D0C, symBinAddr: 0x10000CBEC, symSize: 0x28 }
  - { offsetInCU: 0x234CD, offset: 0x234CD, size: 0x8, addend: 0x0, symName: __ZNSt3__111__list_nodeINS_4pairI7TestKey9TestValueEEPvE9__as_linkB7v160006Ev, symObjAddr: 0x8D34, symBinAddr: 0x10000CC14, symSize: 0x24 }
  - { offsetInCU: 0x234F1, offset: 0x234F1, size: 0x8, addend: 0x0, symName: __ZNSt3__110unique_ptrINS_11__list_nodeINS_4pairI7TestKey9TestValueEEPvEENS_22__allocator_destructorINS_9allocatorIS7_EEEEE7releaseB7v160006Ev, symObjAddr: 0x8D58, symBinAddr: 0x10000CC38, symSize: 0x44 }
  - { offsetInCU: 0x23525, offset: 0x23525, size: 0x8, addend: 0x0, symName: __ZNSt3__110unique_ptrINS_11__list_nodeINS_4pairI7TestKey9TestValueEEPvEENS_22__allocator_destructorINS_9allocatorIS7_EEEEED1B7v160006Ev, symObjAddr: 0x8D9C, symBinAddr: 0x10000CC7C, symSize: 0x2C }
  - { offsetInCU: 0x2354E, offset: 0x2354E, size: 0x8, addend: 0x0, symName: __ZNSt3__116allocator_traitsINS_9allocatorINS_11__list_nodeINS_4pairI7TestKey9TestValueEEPvEEEEE8allocateB7v160006ERS9_m, symObjAddr: 0x8DC8, symBinAddr: 0x10000CCA8, symSize: 0x2C }
  - { offsetInCU: 0x23581, offset: 0x23581, size: 0x8, addend: 0x0, symName: __ZNSt3__122__allocator_destructorINS_9allocatorINS_11__list_nodeINS_4pairI7TestKey9TestValueEEPvEEEEEC1B7v160006ERS9_m, symObjAddr: 0x8DF4, symBinAddr: 0x10000CCD4, symSize: 0x3C }
  - { offsetInCU: 0x235CB, offset: 0x235CB, size: 0x8, addend: 0x0, symName: __ZNSt3__110unique_ptrINS_11__list_nodeINS_4pairI7TestKey9TestValueEEPvEENS_22__allocator_destructorINS_9allocatorIS7_EEEEEC1B7v160006ILb1EvEEPS7_NS_16__dependent_typeINS_27__unique_ptr_deleter_sfinaeISB_EEXT_EE20__good_rval_ref_typeE, symObjAddr: 0x8E30, symBinAddr: 0x10000CD10, symSize: 0x3C }
  - { offsetInCU: 0x2361A, offset: 0x2361A, size: 0x8, addend: 0x0, symName: __ZNSt3__19allocatorINS_11__list_nodeINS_4pairI7TestKey9TestValueEEPvEEE8allocateB7v160006Em, symObjAddr: 0x8E6C, symBinAddr: 0x10000CD4C, symSize: 0x5C }
  - { offsetInCU: 0x23657, offset: 0x23657, size: 0x8, addend: 0x0, symName: __ZNSt3__116allocator_traitsINS_9allocatorINS_11__list_nodeINS_4pairI7TestKey9TestValueEEPvEEEEE8max_sizeB7v160006IS9_vvEEmRKS9_, symObjAddr: 0x8EC8, symBinAddr: 0x10000CDA8, symSize: 0x28 }
  - { offsetInCU: 0x23683, offset: 0x23683, size: 0x8, addend: 0x0, symName: __ZNSt3__114numeric_limitsImE3maxB7v160006Ev, symObjAddr: 0x8F84, symBinAddr: 0x10000CE64, symSize: 0x14 }
  - { offsetInCU: 0x23697, offset: 0x23697, size: 0x8, addend: 0x0, symName: __ZNSt3__123__libcpp_numeric_limitsImLb1EE3maxB7v160006Ev, symObjAddr: 0x8F98, symBinAddr: 0x10000CE78, symSize: 0x8 }
  - { offsetInCU: 0x236AB, offset: 0x236AB, size: 0x8, addend: 0x0, symName: __ZNSt3__122__allocator_destructorINS_9allocatorINS_11__list_nodeINS_4pairI7TestKey9TestValueEEPvEEEEEC2B7v160006ERS9_m, symObjAddr: 0x8FF0, symBinAddr: 0x10000CED0, symSize: 0x2C }
  - { offsetInCU: 0x236F0, offset: 0x236F0, size: 0x8, addend: 0x0, symName: __ZNSt3__110unique_ptrINS_11__list_nodeINS_4pairI7TestKey9TestValueEEPvEENS_22__allocator_destructorINS_9allocatorIS7_EEEEEC2B7v160006ILb1EvEEPS7_NS_16__dependent_typeINS_27__unique_ptr_deleter_sfinaeISB_EEXT_EE20__good_rval_ref_typeE, symObjAddr: 0x901C, symBinAddr: 0x10000CEFC, symSize: 0x48 }
  - { offsetInCU: 0x23740, offset: 0x23740, size: 0x8, addend: 0x0, symName: __ZNSt3__117__compressed_pairIPNS_11__list_nodeINS_4pairI7TestKey9TestValueEEPvEENS_22__allocator_destructorINS_9allocatorIS7_EEEEEC1B7v160006IRS8_SC_EEOT_OT0_, symObjAddr: 0x9064, symBinAddr: 0x10000CF44, symSize: 0x3C }
  - { offsetInCU: 0x23797, offset: 0x23797, size: 0x8, addend: 0x0, symName: __ZNSt3__117__compressed_pairIPNS_11__list_nodeINS_4pairI7TestKey9TestValueEEPvEENS_22__allocator_destructorINS_9allocatorIS7_EEEEEC2B7v160006IRS8_SC_EEOT_OT0_, symObjAddr: 0x90A0, symBinAddr: 0x10000CF80, symSize: 0x48 }
  - { offsetInCU: 0x237EE, offset: 0x237EE, size: 0x8, addend: 0x0, symName: __ZNSt3__122__compressed_pair_elemIPNS_11__list_nodeINS_4pairI7TestKey9TestValueEEPvEELi0ELb0EEC2B7v160006IRS8_vEEOT_, symObjAddr: 0x90E8, symBinAddr: 0x10000CFC8, symSize: 0x24 }
  - { offsetInCU: 0x2382F, offset: 0x2382F, size: 0x8, addend: 0x0, symName: __ZNSt3__122__compressed_pair_elemINS_22__allocator_destructorINS_9allocatorINS_11__list_nodeINS_4pairI7TestKey9TestValueEEPvEEEEEELi1ELb0EEC2B7v160006ISB_vEEOT_, symObjAddr: 0x910C, symBinAddr: 0x10000CFEC, symSize: 0x24 }
  - { offsetInCU: 0x23870, offset: 0x23870, size: 0x8, addend: 0x0, symName: __ZNSt3__14pairI7TestKey9TestValueEC1EOS3_, symObjAddr: 0x916C, symBinAddr: 0x10000D04C, symSize: 0x34 }
  - { offsetInCU: 0x238A3, offset: 0x238A3, size: 0x8, addend: 0x0, symName: __ZNSt3__14pairI7TestKey9TestValueEC2EOS3_, symObjAddr: 0x91A0, symBinAddr: 0x10000D080, symSize: 0x48 }
  - { offsetInCU: 0x238DB, offset: 0x238DB, size: 0x8, addend: 0x0, symName: __ZN9TestValueC1EOS_, symObjAddr: 0x91E8, symBinAddr: 0x10000D0C8, symSize: 0x34 }
  - { offsetInCU: 0x2390F, offset: 0x2390F, size: 0x8, addend: 0x0, symName: __ZN9TestValueC2EOS_, symObjAddr: 0x921C, symBinAddr: 0x10000D0FC, symSize: 0x34 }
  - { offsetInCU: 0x23943, offset: 0x23943, size: 0x8, addend: 0x0, symName: __ZNSt3__112basic_stringIcNS_11char_traitsIcEENS_9allocatorIcEEEC1B7v160006EOS5_, symObjAddr: 0x9250, symBinAddr: 0x10000D130, symSize: 0x34 }
  - { offsetInCU: 0x2397B, offset: 0x2397B, size: 0x8, addend: 0x0, symName: __ZNSt3__112basic_stringIcNS_11char_traitsIcEENS_9allocatorIcEEEC2B7v160006EOS5_, symObjAddr: 0x9284, symBinAddr: 0x10000D164, symSize: 0x80 }
  - { offsetInCU: 0x239B2, offset: 0x239B2, size: 0x8, addend: 0x0, symName: __ZNKSt3__117__compressed_pairIPNS_11__list_nodeINS_4pairI7TestKey9TestValueEEPvEENS_22__allocator_destructorINS_9allocatorIS7_EEEEE5firstB7v160006Ev, symObjAddr: 0x9318, symBinAddr: 0x10000D1F8, symSize: 0x24 }
  - { offsetInCU: 0x239D7, offset: 0x239D7, size: 0x8, addend: 0x0, symName: __ZNKSt3__122__compressed_pair_elemIPNS_11__list_nodeINS_4pairI7TestKey9TestValueEEPvEELi0ELb0EE5__getB7v160006Ev, symObjAddr: 0x933C, symBinAddr: 0x10000D21C, symSize: 0x14 }
  - { offsetInCU: 0x239FB, offset: 0x239FB, size: 0x8, addend: 0x0, symName: __ZNSt3__117__compressed_pairIPNS_11__list_nodeINS_4pairI7TestKey9TestValueEEPvEENS_22__allocator_destructorINS_9allocatorIS7_EEEEE5firstB7v160006Ev, symObjAddr: 0x9350, symBinAddr: 0x10000D230, symSize: 0x24 }
  - { offsetInCU: 0x23A20, offset: 0x23A20, size: 0x8, addend: 0x0, symName: __ZNSt3__122__compressed_pair_elemIPNS_11__list_nodeINS_4pairI7TestKey9TestValueEEPvEELi0ELb0EE5__getB7v160006Ev, symObjAddr: 0x9374, symBinAddr: 0x10000D254, symSize: 0x14 }
  - { offsetInCU: 0x23A45, offset: 0x23A45, size: 0x8, addend: 0x0, symName: __ZNSt3__110unique_ptrINS_11__list_nodeINS_4pairI7TestKey9TestValueEEPvEENS_22__allocator_destructorINS_9allocatorIS7_EEEEED2B7v160006Ev, symObjAddr: 0x9388, symBinAddr: 0x10000D268, symSize: 0x30 }
  - { offsetInCU: 0x23A6D, offset: 0x23A6D, size: 0x8, addend: 0x0, symName: __ZNSt3__110unique_ptrINS_11__list_nodeINS_4pairI7TestKey9TestValueEEPvEENS_22__allocator_destructorINS_9allocatorIS7_EEEEE5resetB7v160006EPS7_, symObjAddr: 0x93B8, symBinAddr: 0x10000D298, symSize: 0x78 }
  - { offsetInCU: 0x23AAF, offset: 0x23AAF, size: 0x8, addend: 0x0, symName: __ZNSt3__117__compressed_pairIPNS_11__list_nodeINS_4pairI7TestKey9TestValueEEPvEENS_22__allocator_destructorINS_9allocatorIS7_EEEEE6secondB7v160006Ev, symObjAddr: 0x9430, symBinAddr: 0x10000D310, symSize: 0x28 }
  - { offsetInCU: 0x23AD3, offset: 0x23AD3, size: 0x8, addend: 0x0, symName: __ZNSt3__122__allocator_destructorINS_9allocatorINS_11__list_nodeINS_4pairI7TestKey9TestValueEEPvEEEEEclB7v160006EPS8_, symObjAddr: 0x9458, symBinAddr: 0x10000D338, symSize: 0x34 }
  - { offsetInCU: 0x23B06, offset: 0x23B06, size: 0x8, addend: 0x0, symName: __ZNSt3__122__compressed_pair_elemINS_22__allocator_destructorINS_9allocatorINS_11__list_nodeINS_4pairI7TestKey9TestValueEEPvEEEEEELi1ELb0EE5__getB7v160006Ev, symObjAddr: 0x948C, symBinAddr: 0x10000D36C, symSize: 0x14 }
  - { offsetInCU: 0x23B2B, offset: 0x23B2B, size: 0x8, addend: 0x0, symName: __ZNSt3__14pairI7TestKey9TestValueEC2B7v160006ILb1ELPv0EEERKS1_RKS2_, symObjAddr: 0x94A0, symBinAddr: 0x10000D380, symSize: 0x48 }
  - { offsetInCU: 0x23B80, offset: 0x23B80, size: 0x8, addend: 0x0, symName: __ZN9TestValueC1ERKS_, symObjAddr: 0x94E8, symBinAddr: 0x10000D3C8, symSize: 0x34 }
  - { offsetInCU: 0x23BB4, offset: 0x23BB4, size: 0x8, addend: 0x0, symName: __ZN9TestValueC2ERKS_, symObjAddr: 0x951C, symBinAddr: 0x10000D3FC, symSize: 0x34 }
  - { offsetInCU: 0x23BE8, offset: 0x23BE8, size: 0x8, addend: 0x0, symName: __ZNSt3__115__list_iteratorINS_4pairI7TestKey9TestValueEEPvEppB7v160006Ev, symObjAddr: 0x9658, symBinAddr: 0x10000D538, symSize: 0x20 }
  - { offsetInCU: 0x23C0D, offset: 0x23C0D, size: 0x8, addend: 0x0, symName: __ZNSt3__115__list_iteratorINS_4pairI7TestKey9TestValueEEPvEmmB7v160006Ev, symObjAddr: 0x9678, symBinAddr: 0x10000D558, symSize: 0x20 }
  - { offsetInCU: 0x23C31, offset: 0x23C31, size: 0x8, addend: 0x0, symName: __ZNSt3__110__list_impINS_4pairI7TestKey9TestValueEENS_9allocatorIS4_EEE3endB7v160006Ev, symObjAddr: 0x9698, symBinAddr: 0x10000D578, symSize: 0x3C }
  - { offsetInCU: 0x23C6A, offset: 0x23C6A, size: 0x8, addend: 0x0, symName: __ZNSt3__112__hash_tableINS_17__hash_value_typeI7TestKeyNS_15__list_iteratorINS_4pairIS2_9TestValueEEPvEEEENS_22__unordered_map_hasherIS2_S9_NS_4hashIS2_EENS_8equal_toIS2_EELb1EEENS_21__unordered_map_equalIS2_S9_SE_SC_Lb1EEENS_9allocatorIS9_EEE25__emplace_unique_key_argsIS2_JRKNS_21piecewise_construct_tENS_5tupleIJRKS2_EEENSP_IJEEEEEENS4_INS_15__hash_iteratorIPNS_11__hash_nodeIS9_S7_EEEEbEERKT_DpOT0_, symObjAddr: 0x96D4, symBinAddr: 0x10000D5B4, symSize: 0x4A0 }
  - { offsetInCU: 0x23D73, offset: 0x23D73, size: 0x8, addend: 0x0, symName: __ZNKSt3__115__hash_iteratorIPNS_11__hash_nodeINS_17__hash_value_typeI7TestKeyNS_15__list_iteratorINS_4pairIS3_9TestValueEEPvEEEES8_EEEptB7v160006Ev, symObjAddr: 0x9BA4, symBinAddr: 0x10000DA84, symSize: 0x30 }
  - { offsetInCU: 0x23D98, offset: 0x23D98, size: 0x8, addend: 0x0, symName: __ZNSt3__112__hash_tableINS_17__hash_value_typeI7TestKeyNS_15__list_iteratorINS_4pairIS2_9TestValueEEPvEEEENS_22__unordered_map_hasherIS2_S9_NS_4hashIS2_EENS_8equal_toIS2_EELb1EEENS_21__unordered_map_equalIS2_S9_SE_SC_Lb1EEENS_9allocatorIS9_EEE21__construct_node_hashIRKNS_21piecewise_construct_tEJNS_5tupleIJRKS2_EEENSP_IJEEEEEENS_10unique_ptrINS_11__hash_nodeIS9_S7_EENS_22__hash_node_destructorINSI_ISW_EEEEEEmOT_DpOT0_, symObjAddr: 0x9BD4, symBinAddr: 0x10000DAB4, symSize: 0x150 }
  - { offsetInCU: 0x23E32, offset: 0x23E32, size: 0x8, addend: 0x0, symName: __ZNSt3__112__hash_tableINS_17__hash_value_typeI7TestKeyNS_15__list_iteratorINS_4pairIS2_9TestValueEEPvEEEENS_22__unordered_map_hasherIS2_S9_NS_4hashIS2_EENS_8equal_toIS2_EELb1EEENS_21__unordered_map_equalIS2_S9_SE_SC_Lb1EEENS_9allocatorIS9_EEE15max_load_factorB7v160006Ev, symObjAddr: 0x9D24, symBinAddr: 0x10000DC04, symSize: 0x28 }
  - { offsetInCU: 0x23E56, offset: 0x23E56, size: 0x8, addend: 0x0, symName: __ZNSt3__112__hash_tableINS_17__hash_value_typeI7TestKeyNS_15__list_iteratorINS_4pairIS2_9TestValueEEPvEEEENS_22__unordered_map_hasherIS2_S9_NS_4hashIS2_EENS_8equal_toIS2_EELb1EEENS_21__unordered_map_equalIS2_S9_SE_SC_Lb1EEENS_9allocatorIS9_EEE15__rehash_uniqueB7v160006Em, symObjAddr: 0x9D4C, symBinAddr: 0x10000DC2C, symSize: 0x2C }
  - { offsetInCU: 0x23E89, offset: 0x23E89, size: 0x8, addend: 0x0, symName: __Z4ceilB7v160006f, symObjAddr: 0x9DF4, symBinAddr: 0x10000DCD4, symSize: 0x18 }
  - { offsetInCU: 0x23EB7, offset: 0x23EB7, size: 0x8, addend: 0x0, symName: __ZNKSt3__110unique_ptrINS_11__hash_nodeINS_17__hash_value_typeI7TestKeyNS_15__list_iteratorINS_4pairIS3_9TestValueEEPvEEEES8_EENS_22__hash_node_destructorINS_9allocatorISB_EEEEEptB7v160006Ev, symObjAddr: 0x9E0C, symBinAddr: 0x10000DCEC, symSize: 0x28 }
  - { offsetInCU: 0x23EDB, offset: 0x23EDB, size: 0x8, addend: 0x0, symName: __ZNKSt3__110unique_ptrINS_11__hash_nodeINS_17__hash_value_typeI7TestKeyNS_15__list_iteratorINS_4pairIS3_9TestValueEEPvEEEES8_EENS_22__hash_node_destructorINS_9allocatorISB_EEEEE3getB7v160006Ev, symObjAddr: 0x9E34, symBinAddr: 0x10000DD14, symSize: 0x28 }
  - { offsetInCU: 0x23EFF, offset: 0x23EFF, size: 0x8, addend: 0x0, symName: __ZNSt3__110unique_ptrINS_11__hash_nodeINS_17__hash_value_typeI7TestKeyNS_15__list_iteratorINS_4pairIS3_9TestValueEEPvEEEES8_EENS_22__hash_node_destructorINS_9allocatorISB_EEEEE7releaseB7v160006Ev, symObjAddr: 0x9E5C, symBinAddr: 0x10000DD3C, symSize: 0x44 }
  - { offsetInCU: 0x23F3D, offset: 0x23F3D, size: 0x8, addend: 0x0, symName: __ZNSt3__14pairINS_15__hash_iteratorIPNS_11__hash_nodeINS_17__hash_value_typeI7TestKeyNS_15__list_iteratorINS0_IS4_9TestValueEEPvEEEES8_EEEEbEC1B7v160006ISD_RbLS8_0EEEOT_OT0_, symObjAddr: 0x9EA0, symBinAddr: 0x10000DD80, symSize: 0x3C }
  - { offsetInCU: 0x23F9A, offset: 0x23F9A, size: 0x8, addend: 0x0, symName: __ZNSt3__116allocator_traitsINS_9allocatorINS_11__hash_nodeINS_17__hash_value_typeI7TestKeyNS_15__list_iteratorINS_4pairIS4_9TestValueEEPvEEEES9_EEEEE8allocateB7v160006ERSD_m, symObjAddr: 0x9EDC, symBinAddr: 0x10000DDBC, symSize: 0x2C }
  - { offsetInCU: 0x23FCD, offset: 0x23FCD, size: 0x8, addend: 0x0, symName: __ZNSt3__116allocator_traitsINS_9allocatorINS_11__hash_nodeINS_17__hash_value_typeI7TestKeyNS_15__list_iteratorINS_4pairIS4_9TestValueEEPvEEEES9_EEEEE9constructB7v160006INS6_IKS4_SA_EEJRKNS_21piecewise_construct_tENS_5tupleIJRSG_EEENSL_IJEEEEvvEEvRSD_PT_DpOT0_, symObjAddr: 0x9F08, symBinAddr: 0x10000DDE8, symSize: 0x40 }
  - { offsetInCU: 0x24049, offset: 0x24049, size: 0x8, addend: 0x0, symName: __ZNSt3__110unique_ptrINS_11__hash_nodeINS_17__hash_value_typeI7TestKeyNS_15__list_iteratorINS_4pairIS3_9TestValueEEPvEEEES8_EENS_22__hash_node_destructorINS_9allocatorISB_EEEEE11get_deleterB7v160006Ev, symObjAddr: 0x9F48, symBinAddr: 0x10000DE28, symSize: 0x24 }
  - { offsetInCU: 0x2406D, offset: 0x2406D, size: 0x8, addend: 0x0, symName: __ZNSt3__19allocatorINS_11__hash_nodeINS_17__hash_value_typeI7TestKeyNS_15__list_iteratorINS_4pairIS3_9TestValueEEPvEEEES8_EEE8allocateB7v160006Em, symObjAddr: 0x9F6C, symBinAddr: 0x10000DE4C, symSize: 0x58 }
  - { offsetInCU: 0x240AA, offset: 0x240AA, size: 0x8, addend: 0x0, symName: __ZNSt3__116allocator_traitsINS_9allocatorINS_11__hash_nodeINS_17__hash_value_typeI7TestKeyNS_15__list_iteratorINS_4pairIS4_9TestValueEEPvEEEES9_EEEEE8max_sizeB7v160006ISD_vvEEmRKSD_, symObjAddr: 0x9FC4, symBinAddr: 0x10000DEA4, symSize: 0x28 }
  - { offsetInCU: 0x240D6, offset: 0x240D6, size: 0x8, addend: 0x0, symName: __ZNSt3__14pairIK7TestKeyNS_15__list_iteratorINS0_IS1_9TestValueEEPvEEEC1B7v160006IJRS2_EJEEENS_21piecewise_construct_tENS_5tupleIJDpT_EEENSC_IJDpT0_EEE, symObjAddr: 0xA03C, symBinAddr: 0x10000DF1C, symSize: 0x44 }
  - { offsetInCU: 0x2413C, offset: 0x2413C, size: 0x8, addend: 0x0, symName: __ZNSt3__14pairIK7TestKeyNS_15__list_iteratorINS0_IS1_9TestValueEEPvEEEC1B7v160006IJRS2_EJEJLm0EEJEEENS_21piecewise_construct_tERNS_5tupleIJDpT_EEERNSC_IJDpT0_EEENS_15__tuple_indicesIJXspT1_EEEENSL_IJXspT2_EEEE, symObjAddr: 0xA080, symBinAddr: 0x10000DF60, symSize: 0x3C }
  - { offsetInCU: 0x241CB, offset: 0x241CB, size: 0x8, addend: 0x0, symName: __ZNSt3__14pairIK7TestKeyNS_15__list_iteratorINS0_IS1_9TestValueEEPvEEEC2B7v160006IJRS2_EJEJLm0EEJEEENS_21piecewise_construct_tERNS_5tupleIJDpT_EEERNSC_IJDpT0_EEENS_15__tuple_indicesIJXspT1_EEEENSL_IJXspT2_EEEE, symObjAddr: 0xA0BC, symBinAddr: 0x10000DF9C, symSize: 0x4C }
  - { offsetInCU: 0x2425A, offset: 0x2425A, size: 0x8, addend: 0x0, symName: __ZNSt3__115__list_iteratorINS_4pairI7TestKey9TestValueEEPvEC1B7v160006Ev, symObjAddr: 0xA12C, symBinAddr: 0x10000E00C, symSize: 0x2C }
  - { offsetInCU: 0x24283, offset: 0x24283, size: 0x8, addend: 0x0, symName: __ZNSt3__112__tuple_leafILm0ERK7TestKeyLb0EE3getB7v160006Ev, symObjAddr: 0xA158, symBinAddr: 0x10000E038, symSize: 0x18 }
  - { offsetInCU: 0x242A8, offset: 0x242A8, size: 0x8, addend: 0x0, symName: __ZNSt3__115__list_iteratorINS_4pairI7TestKey9TestValueEEPvEC2B7v160006Ev, symObjAddr: 0xA170, symBinAddr: 0x10000E050, symSize: 0x38 }
  - { offsetInCU: 0x242D0, offset: 0x242D0, size: 0x8, addend: 0x0, symName: __ZNSt3__117__compressed_pairIfNS_21__unordered_map_equalI7TestKeyNS_17__hash_value_typeIS2_NS_15__list_iteratorINS_4pairIS2_9TestValueEEPvEEEENS_8equal_toIS2_EENS_4hashIS2_EELb1EEEE5firstB7v160006Ev, symObjAddr: 0xA1B8, symBinAddr: 0x10000E098, symSize: 0x24 }
  - { offsetInCU: 0x242F5, offset: 0x242F5, size: 0x8, addend: 0x0, symName: __ZNSt3__122__compressed_pair_elemIfLi0ELb0EE5__getB7v160006Ev, symObjAddr: 0xA1DC, symBinAddr: 0x10000E0BC, symSize: 0x14 }
  - { offsetInCU: 0x2431A, offset: 0x2431A, size: 0x8, addend: 0x0, symName: __ZNSt3__112__hash_tableINS_17__hash_value_typeI7TestKeyNS_15__list_iteratorINS_4pairIS2_9TestValueEEPvEEEENS_22__unordered_map_hasherIS2_S9_NS_4hashIS2_EENS_8equal_toIS2_EELb1EEENS_21__unordered_map_equalIS2_S9_SE_SC_Lb1EEENS_9allocatorIS9_EEE8__rehashILb1EEEvm, symObjAddr: 0xA1F0, symBinAddr: 0x10000E0D0, symSize: 0x1A8 }
  - { offsetInCU: 0x24369, offset: 0x24369, size: 0x8, addend: 0x0, symName: __ZNSt3__112__hash_tableINS_17__hash_value_typeI7TestKeyNS_15__list_iteratorINS_4pairIS2_9TestValueEEPvEEEENS_22__unordered_map_hasherIS2_S9_NS_4hashIS2_EENS_8equal_toIS2_EELb1EEENS_21__unordered_map_equalIS2_S9_SE_SC_Lb1EEENS_9allocatorIS9_EEE11__do_rehashILb1EEEvm, symObjAddr: 0xA398, symBinAddr: 0x10000E278, symSize: 0x290 }
  - { offsetInCU: 0x2444A, offset: 0x2444A, size: 0x8, addend: 0x0, symName: __ZNSt3__110unique_ptrIA_PNS_16__hash_node_baseIPNS_11__hash_nodeINS_17__hash_value_typeI7TestKeyNS_15__list_iteratorINS_4pairIS4_9TestValueEEPvEEEES9_EEEENS_25__bucket_list_deallocatorINS_9allocatorISF_EEEEE11get_deleterB7v160006Ev, symObjAddr: 0xA6A4, symBinAddr: 0x10000E584, symSize: 0x24 }
  - { offsetInCU: 0x2446E, offset: 0x2446E, size: 0x8, addend: 0x0, symName: __ZNSt3__110unique_ptrIA_PNS_16__hash_node_baseIPNS_11__hash_nodeINS_17__hash_value_typeI7TestKeyNS_15__list_iteratorINS_4pairIS4_9TestValueEEPvEEEES9_EEEENS_25__bucket_list_deallocatorINS_9allocatorISF_EEEEE5resetB7v160006IPSF_EENS_9enable_ifIXsr28_CheckArrayPointerConversionIT_EE5valueEvE4typeESP_, symObjAddr: 0xA6C8, symBinAddr: 0x10000E5A8, symSize: 0x78 }
  - { offsetInCU: 0x244BA, offset: 0x244BA, size: 0x8, addend: 0x0, symName: __ZNSt3__116allocator_traitsINS_9allocatorIPNS_16__hash_node_baseIPNS_11__hash_nodeINS_17__hash_value_typeI7TestKeyNS_15__list_iteratorINS_4pairIS5_9TestValueEEPvEEEESA_EEEEEEE8allocateB7v160006ERSH_m, symObjAddr: 0xA740, symBinAddr: 0x10000E620, symSize: 0x2C }
  - { offsetInCU: 0x244EC, offset: 0x244EC, size: 0x8, addend: 0x0, symName: __ZNSt3__19allocatorIPNS_16__hash_node_baseIPNS_11__hash_nodeINS_17__hash_value_typeI7TestKeyNS_15__list_iteratorINS_4pairIS4_9TestValueEEPvEEEES9_EEEEE8allocateB7v160006Em, symObjAddr: 0xA76C, symBinAddr: 0x10000E64C, symSize: 0x58 }
  - { offsetInCU: 0x24529, offset: 0x24529, size: 0x8, addend: 0x0, symName: __ZNSt3__116allocator_traitsINS_9allocatorIPNS_16__hash_node_baseIPNS_11__hash_nodeINS_17__hash_value_typeI7TestKeyNS_15__list_iteratorINS_4pairIS5_9TestValueEEPvEEEESA_EEEEEEE8max_sizeB7v160006ISH_vvEEmRKSH_, symObjAddr: 0xA7C4, symBinAddr: 0x10000E6A4, symSize: 0x28 }
  - { offsetInCU: 0x24554, offset: 0x24554, size: 0x8, addend: 0x0, symName: __ZNKSt3__117__compressed_pairIPNS_11__hash_nodeINS_17__hash_value_typeI7TestKeyNS_15__list_iteratorINS_4pairIS3_9TestValueEEPvEEEES8_EENS_22__hash_node_destructorINS_9allocatorISB_EEEEE5firstB7v160006Ev, symObjAddr: 0xA85C, symBinAddr: 0x10000E73C, symSize: 0x24 }
  - { offsetInCU: 0x24579, offset: 0x24579, size: 0x8, addend: 0x0, symName: __ZNKSt3__122__compressed_pair_elemIPNS_11__hash_nodeINS_17__hash_value_typeI7TestKeyNS_15__list_iteratorINS_4pairIS3_9TestValueEEPvEEEES8_EELi0ELb0EE5__getB7v160006Ev, symObjAddr: 0xA880, symBinAddr: 0x10000E760, symSize: 0x14 }
  - { offsetInCU: 0x2459E, offset: 0x2459E, size: 0x8, addend: 0x0, symName: __ZNSt3__14pairINS_15__hash_iteratorIPNS_11__hash_nodeINS_17__hash_value_typeI7TestKeyNS_15__list_iteratorINS0_IS4_9TestValueEEPvEEEES8_EEEEbEC2B7v160006ISD_RbLS8_0EEEOT_OT0_, symObjAddr: 0xA894, symBinAddr: 0x10000E774, symSize: 0x38 }
  - { offsetInCU: 0x245FB, offset: 0x245FB, size: 0x8, addend: 0x0, symName: __ZNSt3__15tupleIJRK7TestKeyEEC1B7v160006INS_4_AndELi0EEES3_, symObjAddr: 0xA8CC, symBinAddr: 0x10000E7AC, symSize: 0x34 }
  - { offsetInCU: 0x24642, offset: 0x24642, size: 0x8, addend: 0x0, symName: __ZNSt3__15tupleIJRK7TestKeyEEC2B7v160006INS_4_AndELi0EEES3_, symObjAddr: 0xA900, symBinAddr: 0x10000E7E0, symSize: 0x34 }
  - { offsetInCU: 0x24689, offset: 0x24689, size: 0x8, addend: 0x0, symName: __ZNSt3__112__tuple_implINS_15__tuple_indicesIJLm0EEEEJRK7TestKeyEEC1B7v160006IJLm0EEJS5_EJEJEJS5_EEENS1_IJXspT_EEEENS_13__tuple_typesIJDpT0_EEENS1_IJXspT1_EEEENS9_IJDpT2_EEEDpOT3_, symObjAddr: 0xA934, symBinAddr: 0x10000E814, symSize: 0x34 }
  - { offsetInCU: 0x2471D, offset: 0x2471D, size: 0x8, addend: 0x0, symName: __ZNSt3__112__tuple_implINS_15__tuple_indicesIJLm0EEEEJRK7TestKeyEEC2B7v160006IJLm0EEJS5_EJEJEJS5_EEENS1_IJXspT_EEEENS_13__tuple_typesIJDpT0_EEENS1_IJXspT1_EEEENS9_IJDpT2_EEEDpOT3_, symObjAddr: 0xA968, symBinAddr: 0x10000E848, symSize: 0x34 }
  - { offsetInCU: 0x247B1, offset: 0x247B1, size: 0x8, addend: 0x0, symName: __ZNSt3__112__tuple_leafILm0ERK7TestKeyLb0EEC2B7v160006IS3_vEEOT_, symObjAddr: 0xA99C, symBinAddr: 0x10000E87C, symSize: 0x20 }
  - { offsetInCU: 0x247F3, offset: 0x247F3, size: 0x8, addend: 0x0, symName: __ZNSt3__114pointer_traitsIPNS_17__hash_value_typeI7TestKeyNS_15__list_iteratorINS_4pairIS2_9TestValueEEPvEEEEE10pointer_toB7v160006ERS9_, symObjAddr: 0xA9BC, symBinAddr: 0x10000E89C, symSize: 0x14 }
  - { offsetInCU: 0x24816, offset: 0x24816, size: 0x8, addend: 0x0, symName: __ZNSt3__114pointer_traitsIPNS_4pairIK7TestKeyNS_15__list_iteratorINS1_IS2_9TestValueEEPvEEEEE10pointer_toB7v160006ERS9_, symObjAddr: 0xA9D0, symBinAddr: 0x10000E8B0, symSize: 0x14 }
  - { offsetInCU: 0x24839, offset: 0x24839, size: 0x8, addend: 0x0, symName: __ZNSt3__14pairI7TestKey9TestValueEC2ERKS3_, symObjAddr: 0xA9E4, symBinAddr: 0x10000E8C4, symSize: 0x48 }
  - { offsetInCU: 0x2486C, offset: 0x2486C, size: 0x8, addend: 0x0, symName: __ZNSt3__116allocator_traitsINS_9allocatorINS_11__list_nodeINS_4pairI7TestKey9TestValueEEPvEEEEE9constructB7v160006IS6_JRKS6_EvvEEvRS9_PT_DpOT0_, symObjAddr: 0xAA2C, symBinAddr: 0x10000E90C, symSize: 0x30 }
  - { offsetInCU: 0x248C1, offset: 0x248C1, size: 0x8, addend: 0x0, symName: __ZNSt3__114pointer_traitsIPNS_4pairI7TestKey9TestValueEEE10pointer_toB7v160006ERS4_, symObjAddr: 0xAA98, symBinAddr: 0x10000E978, symSize: 0x14 }
  - { offsetInCU: 0x248E4, offset: 0x248E4, size: 0x8, addend: 0x0, symName: __ZN8LruCacheINSt3__112basic_stringIcNS0_11char_traitsIcEENS0_9allocatorIcEEEES6_EC2Ei, symObjAddr: 0xAAAC, symBinAddr: 0x10000E98C, symSize: 0x44 }
  - { offsetInCU: 0x2491B, offset: 0x2491B, size: 0x8, addend: 0x0, symName: __ZNSt3__113unordered_mapINS_12basic_stringIcNS_11char_traitsIcEENS_9allocatorIcEEEENS_15__list_iteratorINS_4pairIS6_S6_EEPvEENS_4hashIS6_EENS_8equal_toIS6_EENS4_INS8_IKS6_SB_EEEEEC1B7v160006Ev, symObjAddr: 0xAAF0, symBinAddr: 0x10000E9D0, symSize: 0x2C }
  - { offsetInCU: 0x24944, offset: 0x24944, size: 0x8, addend: 0x0, symName: __ZNSt3__14listINS_4pairINS_12basic_stringIcNS_11char_traitsIcEENS_9allocatorIcEEEES7_EENS5_IS8_EEEC1B7v160006Ev, symObjAddr: 0xAB1C, symBinAddr: 0x10000E9FC, symSize: 0x2C }
  - { offsetInCU: 0x2496D, offset: 0x2496D, size: 0x8, addend: 0x0, symName: __ZNSt3__113unordered_mapINS_12basic_stringIcNS_11char_traitsIcEENS_9allocatorIcEEEENS_15__list_iteratorINS_4pairIS6_S6_EEPvEENS_4hashIS6_EENS_8equal_toIS6_EENS4_INS8_IKS6_SB_EEEEEC2B7v160006Ev, symObjAddr: 0xAB48, symBinAddr: 0x10000EA28, symSize: 0x3C }
  - { offsetInCU: 0x24996, offset: 0x24996, size: 0x8, addend: 0x0, symName: __ZNSt3__112__hash_tableINS_17__hash_value_typeINS_12basic_stringIcNS_11char_traitsIcEENS_9allocatorIcEEEENS_15__list_iteratorINS_4pairIS7_S7_EEPvEEEENS_22__unordered_map_hasherIS7_SD_NS_4hashIS7_EENS_8equal_toIS7_EELb1EEENS_21__unordered_map_equalIS7_SD_SI_SG_Lb1EEENS5_ISD_EEEC1Ev, symObjAddr: 0xAB84, symBinAddr: 0x10000EA64, symSize: 0x2C }
  - { offsetInCU: 0x249C1, offset: 0x249C1, size: 0x8, addend: 0x0, symName: __ZNSt3__112__hash_tableINS_17__hash_value_typeINS_12basic_stringIcNS_11char_traitsIcEENS_9allocatorIcEEEENS_15__list_iteratorINS_4pairIS7_S7_EEPvEEEENS_22__unordered_map_hasherIS7_SD_NS_4hashIS7_EENS_8equal_toIS7_EELb1EEENS_21__unordered_map_equalIS7_SD_SI_SG_Lb1EEENS5_ISD_EEEC2Ev, symObjAddr: 0xABC0, symBinAddr: 0x10000EAA0, symSize: 0x7C }
  - { offsetInCU: 0x249EC, offset: 0x249EC, size: 0x8, addend: 0x0, symName: __ZNSt3__110unique_ptrIA_PNS_16__hash_node_baseIPNS_11__hash_nodeINS_17__hash_value_typeINS_12basic_stringIcNS_11char_traitsIcEENS_9allocatorIcEEEENS_15__list_iteratorINS_4pairIS9_S9_EEPvEEEESD_EEEENS_25__bucket_list_deallocatorINS7_ISJ_EEEEEC1B7v160006ILb1EvEEv, symObjAddr: 0xAC3C, symBinAddr: 0x10000EB1C, symSize: 0x2C }
  - { offsetInCU: 0x24A20, offset: 0x24A20, size: 0x8, addend: 0x0, symName: __ZNSt3__117__compressed_pairINS_16__hash_node_baseIPNS_11__hash_nodeINS_17__hash_value_typeINS_12basic_stringIcNS_11char_traitsIcEENS_9allocatorIcEEEENS_15__list_iteratorINS_4pairIS9_S9_EEPvEEEESD_EEEENS7_ISG_EEEC1B7v160006ILb1EvEEv, symObjAddr: 0xAC68, symBinAddr: 0x10000EB48, symSize: 0x2C }
  - { offsetInCU: 0x24A54, offset: 0x24A54, size: 0x8, addend: 0x0, symName: __ZNSt3__117__compressed_pairImNS_22__unordered_map_hasherINS_12basic_stringIcNS_11char_traitsIcEENS_9allocatorIcEEEENS_17__hash_value_typeIS7_NS_15__list_iteratorINS_4pairIS7_S7_EEPvEEEENS_4hashIS7_EENS_8equal_toIS7_EELb1EEEEC1B7v160006IiNS_18__default_init_tagEEEOT_OT0_, symObjAddr: 0xAC94, symBinAddr: 0x10000EB74, symSize: 0x3C }
  - { offsetInCU: 0x24AAB, offset: 0x24AAB, size: 0x8, addend: 0x0, symName: __ZNSt3__117__compressed_pairIfNS_21__unordered_map_equalINS_12basic_stringIcNS_11char_traitsIcEENS_9allocatorIcEEEENS_17__hash_value_typeIS7_NS_15__list_iteratorINS_4pairIS7_S7_EEPvEEEENS_8equal_toIS7_EENS_4hashIS7_EELb1EEEEC1B7v160006IfNS_18__default_init_tagEEEOT_OT0_, symObjAddr: 0xACD0, symBinAddr: 0x10000EBB0, symSize: 0x3C }
  - { offsetInCU: 0x24B02, offset: 0x24B02, size: 0x8, addend: 0x0, symName: __ZNSt3__110unique_ptrIA_PNS_16__hash_node_baseIPNS_11__hash_nodeINS_17__hash_value_typeINS_12basic_stringIcNS_11char_traitsIcEENS_9allocatorIcEEEENS_15__list_iteratorINS_4pairIS9_S9_EEPvEEEESD_EEEENS_25__bucket_list_deallocatorINS7_ISJ_EEEEEC2B7v160006ILb1EvEEv, symObjAddr: 0xAD0C, symBinAddr: 0x10000EBEC, symSize: 0x3C }
  - { offsetInCU: 0x24B36, offset: 0x24B36, size: 0x8, addend: 0x0, symName: __ZNSt3__117__compressed_pairIPPNS_16__hash_node_baseIPNS_11__hash_nodeINS_17__hash_value_typeINS_12basic_stringIcNS_11char_traitsIcEENS_9allocatorIcEEEENS_15__list_iteratorINS_4pairIS9_S9_EEPvEEEESD_EEEENS_25__bucket_list_deallocatorINS7_ISJ_EEEEEC1B7v160006INS_16__value_init_tagESQ_EEOT_OT0_, symObjAddr: 0xAD48, symBinAddr: 0x10000EC28, symSize: 0x3C }
  - { offsetInCU: 0x24B8D, offset: 0x24B8D, size: 0x8, addend: 0x0, symName: __ZNSt3__117__compressed_pairIPPNS_16__hash_node_baseIPNS_11__hash_nodeINS_17__hash_value_typeINS_12basic_stringIcNS_11char_traitsIcEENS_9allocatorIcEEEENS_15__list_iteratorINS_4pairIS9_S9_EEPvEEEESD_EEEENS_25__bucket_list_deallocatorINS7_ISJ_EEEEEC2B7v160006INS_16__value_init_tagESQ_EEOT_OT0_, symObjAddr: 0xAD84, symBinAddr: 0x10000EC64, symSize: 0x40 }
  - { offsetInCU: 0x24BE4, offset: 0x24BE4, size: 0x8, addend: 0x0, symName: __ZNSt3__122__compressed_pair_elemIPPNS_16__hash_node_baseIPNS_11__hash_nodeINS_17__hash_value_typeINS_12basic_stringIcNS_11char_traitsIcEENS_9allocatorIcEEEENS_15__list_iteratorINS_4pairIS9_S9_EEPvEEEESD_EEEELi0ELb0EEC2B7v160006ENS_16__value_init_tagE, symObjAddr: 0xADC4, symBinAddr: 0x10000ECA4, symSize: 0x18 }
  - { offsetInCU: 0x24C17, offset: 0x24C17, size: 0x8, addend: 0x0, symName: __ZNSt3__122__compressed_pair_elemINS_25__bucket_list_deallocatorINS_9allocatorIPNS_16__hash_node_baseIPNS_11__hash_nodeINS_17__hash_value_typeINS_12basic_stringIcNS_11char_traitsIcEENS2_IcEEEENS_15__list_iteratorINS_4pairISA_SA_EEPvEEEESE_EEEEEEEELi1ELb0EEC2B7v160006ENS_16__value_init_tagE, symObjAddr: 0xADDC, symBinAddr: 0x10000ECBC, symSize: 0x2C }
  - { offsetInCU: 0x24C4A, offset: 0x24C4A, size: 0x8, addend: 0x0, symName: __ZNSt3__125__bucket_list_deallocatorINS_9allocatorIPNS_16__hash_node_baseIPNS_11__hash_nodeINS_17__hash_value_typeINS_12basic_stringIcNS_11char_traitsIcEENS1_IcEEEENS_15__list_iteratorINS_4pairIS9_S9_EEPvEEEESD_EEEEEEEC1B7v160006Ev, symObjAddr: 0xAE08, symBinAddr: 0x10000ECE8, symSize: 0x2C }
  - { offsetInCU: 0x24C73, offset: 0x24C73, size: 0x8, addend: 0x0, symName: __ZNSt3__125__bucket_list_deallocatorINS_9allocatorIPNS_16__hash_node_baseIPNS_11__hash_nodeINS_17__hash_value_typeINS_12basic_stringIcNS_11char_traitsIcEENS1_IcEEEENS_15__list_iteratorINS_4pairIS9_S9_EEPvEEEESD_EEEEEEEC2B7v160006Ev, symObjAddr: 0xAE34, symBinAddr: 0x10000ED14, symSize: 0x40 }
  - { offsetInCU: 0x24C9C, offset: 0x24C9C, size: 0x8, addend: 0x0, symName: __ZNSt3__117__compressed_pairImNS_9allocatorIPNS_16__hash_node_baseIPNS_11__hash_nodeINS_17__hash_value_typeINS_12basic_stringIcNS_11char_traitsIcEENS1_IcEEEENS_15__list_iteratorINS_4pairIS9_S9_EEPvEEEESD_EEEEEEEC1B7v160006IiNS_18__default_init_tagEEEOT_OT0_, symObjAddr: 0xAE74, symBinAddr: 0x10000ED54, symSize: 0x3C }
  - { offsetInCU: 0x24CF3, offset: 0x24CF3, size: 0x8, addend: 0x0, symName: __ZNSt3__117__compressed_pairImNS_9allocatorIPNS_16__hash_node_baseIPNS_11__hash_nodeINS_17__hash_value_typeINS_12basic_stringIcNS_11char_traitsIcEENS1_IcEEEENS_15__list_iteratorINS_4pairIS9_S9_EEPvEEEESD_EEEEEEEC2B7v160006IiNS_18__default_init_tagEEEOT_OT0_, symObjAddr: 0xAEB0, symBinAddr: 0x10000ED90, symSize: 0x40 }
  - { offsetInCU: 0x24D4A, offset: 0x24D4A, size: 0x8, addend: 0x0, symName: __ZNSt3__122__compressed_pair_elemINS_9allocatorIPNS_16__hash_node_baseIPNS_11__hash_nodeINS_17__hash_value_typeINS_12basic_stringIcNS_11char_traitsIcEENS1_IcEEEENS_15__list_iteratorINS_4pairIS9_S9_EEPvEEEESD_EEEEEELi1ELb1EEC2B7v160006ENS_18__default_init_tagE, symObjAddr: 0xAEF0, symBinAddr: 0x10000EDD0, symSize: 0x2C }
  - { offsetInCU: 0x24D7D, offset: 0x24D7D, size: 0x8, addend: 0x0, symName: __ZNSt3__19allocatorIPNS_16__hash_node_baseIPNS_11__hash_nodeINS_17__hash_value_typeINS_12basic_stringIcNS_11char_traitsIcEENS0_IcEEEENS_15__list_iteratorINS_4pairIS8_S8_EEPvEEEESC_EEEEEC2B7v160006Ev, symObjAddr: 0xAF1C, symBinAddr: 0x10000EDFC, symSize: 0x2C }
  - { offsetInCU: 0x24DA6, offset: 0x24DA6, size: 0x8, addend: 0x0, symName: __ZNSt3__116__non_trivial_ifILb1ENS_9allocatorIPNS_16__hash_node_baseIPNS_11__hash_nodeINS_17__hash_value_typeINS_12basic_stringIcNS_11char_traitsIcEENS1_IcEEEENS_15__list_iteratorINS_4pairIS9_S9_EEPvEEEESD_EEEEEEEC2B7v160006Ev, symObjAddr: 0xAF48, symBinAddr: 0x10000EE28, symSize: 0x14 }
  - { offsetInCU: 0x24DCF, offset: 0x24DCF, size: 0x8, addend: 0x0, symName: __ZNSt3__117__compressed_pairINS_16__hash_node_baseIPNS_11__hash_nodeINS_17__hash_value_typeINS_12basic_stringIcNS_11char_traitsIcEENS_9allocatorIcEEEENS_15__list_iteratorINS_4pairIS9_S9_EEPvEEEESD_EEEENS7_ISG_EEEC2B7v160006ILb1EvEEv, symObjAddr: 0xAF5C, symBinAddr: 0x10000EE3C, symSize: 0x34 }
  - { offsetInCU: 0x24E03, offset: 0x24E03, size: 0x8, addend: 0x0, symName: __ZNSt3__122__compressed_pair_elemINS_16__hash_node_baseIPNS_11__hash_nodeINS_17__hash_value_typeINS_12basic_stringIcNS_11char_traitsIcEENS_9allocatorIcEEEENS_15__list_iteratorINS_4pairIS9_S9_EEPvEEEESD_EEEELi0ELb0EEC2B7v160006ENS_16__value_init_tagE, symObjAddr: 0xAF90, symBinAddr: 0x10000EE70, symSize: 0x2C }
  - { offsetInCU: 0x24E36, offset: 0x24E36, size: 0x8, addend: 0x0, symName: __ZNSt3__122__compressed_pair_elemINS_9allocatorINS_11__hash_nodeINS_17__hash_value_typeINS_12basic_stringIcNS_11char_traitsIcEENS1_IcEEEENS_15__list_iteratorINS_4pairIS8_S8_EEPvEEEESC_EEEELi1ELb1EEC2B7v160006ENS_16__value_init_tagE, symObjAddr: 0xAFBC, symBinAddr: 0x10000EE9C, symSize: 0x2C }
  - { offsetInCU: 0x24E69, offset: 0x24E69, size: 0x8, addend: 0x0, symName: __ZNSt3__116__hash_node_baseIPNS_11__hash_nodeINS_17__hash_value_typeINS_12basic_stringIcNS_11char_traitsIcEENS_9allocatorIcEEEENS_15__list_iteratorINS_4pairIS8_S8_EEPvEEEESC_EEEC1B7v160006Ev, symObjAddr: 0xAFE8, symBinAddr: 0x10000EEC8, symSize: 0x2C }
  - { offsetInCU: 0x24E92, offset: 0x24E92, size: 0x8, addend: 0x0, symName: __ZNSt3__116__hash_node_baseIPNS_11__hash_nodeINS_17__hash_value_typeINS_12basic_stringIcNS_11char_traitsIcEENS_9allocatorIcEEEENS_15__list_iteratorINS_4pairIS8_S8_EEPvEEEESC_EEEC2B7v160006Ev, symObjAddr: 0xB014, symBinAddr: 0x10000EEF4, symSize: 0x18 }
  - { offsetInCU: 0x24EBB, offset: 0x24EBB, size: 0x8, addend: 0x0, symName: __ZNSt3__19allocatorINS_11__hash_nodeINS_17__hash_value_typeINS_12basic_stringIcNS_11char_traitsIcEENS0_IcEEEENS_15__list_iteratorINS_4pairIS7_S7_EEPvEEEESB_EEEC2B7v160006Ev, symObjAddr: 0xB02C, symBinAddr: 0x10000EF0C, symSize: 0x2C }
  - { offsetInCU: 0x24EE4, offset: 0x24EE4, size: 0x8, addend: 0x0, symName: __ZNSt3__116__non_trivial_ifILb1ENS_9allocatorINS_11__hash_nodeINS_17__hash_value_typeINS_12basic_stringIcNS_11char_traitsIcEENS1_IcEEEENS_15__list_iteratorINS_4pairIS8_S8_EEPvEEEESC_EEEEEC2B7v160006Ev, symObjAddr: 0xB058, symBinAddr: 0x10000EF38, symSize: 0x14 }
  - { offsetInCU: 0x24F0D, offset: 0x24F0D, size: 0x8, addend: 0x0, symName: __ZNSt3__117__compressed_pairImNS_22__unordered_map_hasherINS_12basic_stringIcNS_11char_traitsIcEENS_9allocatorIcEEEENS_17__hash_value_typeIS7_NS_15__list_iteratorINS_4pairIS7_S7_EEPvEEEENS_4hashIS7_EENS_8equal_toIS7_EELb1EEEEC2B7v160006IiNS_18__default_init_tagEEEOT_OT0_, symObjAddr: 0xB06C, symBinAddr: 0x10000EF4C, symSize: 0x40 }
  - { offsetInCU: 0x24F64, offset: 0x24F64, size: 0x8, addend: 0x0, symName: __ZNSt3__122__compressed_pair_elemINS_22__unordered_map_hasherINS_12basic_stringIcNS_11char_traitsIcEENS_9allocatorIcEEEENS_17__hash_value_typeIS7_NS_15__list_iteratorINS_4pairIS7_S7_EEPvEEEENS_4hashIS7_EENS_8equal_toIS7_EELb1EEELi1ELb1EEC2B7v160006ENS_18__default_init_tagE, symObjAddr: 0xB0AC, symBinAddr: 0x10000EF8C, symSize: 0x2C }
  - { offsetInCU: 0x24F97, offset: 0x24F97, size: 0x8, addend: 0x0, symName: __ZNSt3__122__unordered_map_hasherINS_12basic_stringIcNS_11char_traitsIcEENS_9allocatorIcEEEENS_17__hash_value_typeIS6_NS_15__list_iteratorINS_4pairIS6_S6_EEPvEEEENS_4hashIS6_EENS_8equal_toIS6_EELb1EEC2B7v160006Ev, symObjAddr: 0xB0D8, symBinAddr: 0x10000EFB8, symSize: 0x14 }
  - { offsetInCU: 0x24FC0, offset: 0x24FC0, size: 0x8, addend: 0x0, symName: __ZNSt3__117__compressed_pairIfNS_21__unordered_map_equalINS_12basic_stringIcNS_11char_traitsIcEENS_9allocatorIcEEEENS_17__hash_value_typeIS7_NS_15__list_iteratorINS_4pairIS7_S7_EEPvEEEENS_8equal_toIS7_EENS_4hashIS7_EELb1EEEEC2B7v160006IfNS_18__default_init_tagEEEOT_OT0_, symObjAddr: 0xB0EC, symBinAddr: 0x10000EFCC, symSize: 0x40 }
  - { offsetInCU: 0x25017, offset: 0x25017, size: 0x8, addend: 0x0, symName: __ZNSt3__122__compressed_pair_elemINS_21__unordered_map_equalINS_12basic_stringIcNS_11char_traitsIcEENS_9allocatorIcEEEENS_17__hash_value_typeIS7_NS_15__list_iteratorINS_4pairIS7_S7_EEPvEEEENS_8equal_toIS7_EENS_4hashIS7_EELb1EEELi1ELb1EEC2B7v160006ENS_18__default_init_tagE, symObjAddr: 0xB12C, symBinAddr: 0x10000F00C, symSize: 0x2C }
  - { offsetInCU: 0x2504A, offset: 0x2504A, size: 0x8, addend: 0x0, symName: __ZNSt3__121__unordered_map_equalINS_12basic_stringIcNS_11char_traitsIcEENS_9allocatorIcEEEENS_17__hash_value_typeIS6_NS_15__list_iteratorINS_4pairIS6_S6_EEPvEEEENS_8equal_toIS6_EENS_4hashIS6_EELb1EEC2B7v160006Ev, symObjAddr: 0xB158, symBinAddr: 0x10000F038, symSize: 0x14 }
  - { offsetInCU: 0x25073, offset: 0x25073, size: 0x8, addend: 0x0, symName: __ZNSt3__14listINS_4pairINS_12basic_stringIcNS_11char_traitsIcEENS_9allocatorIcEEEES7_EENS5_IS8_EEEC2B7v160006Ev, symObjAddr: 0xB16C, symBinAddr: 0x10000F04C, symSize: 0x3C }
  - { offsetInCU: 0x2509C, offset: 0x2509C, size: 0x8, addend: 0x0, symName: __ZNSt3__110__list_impINS_4pairINS_12basic_stringIcNS_11char_traitsIcEENS_9allocatorIcEEEES7_EENS5_IS8_EEEC2Ev, symObjAddr: 0xB1A8, symBinAddr: 0x10000F088, symSize: 0x50 }
  - { offsetInCU: 0x250C7, offset: 0x250C7, size: 0x8, addend: 0x0, symName: __ZNSt3__116__list_node_baseINS_4pairINS_12basic_stringIcNS_11char_traitsIcEENS_9allocatorIcEEEES7_EEPvEC1B7v160006Ev, symObjAddr: 0xB208, symBinAddr: 0x10000F0E8, symSize: 0x2C }
  - { offsetInCU: 0x250F0, offset: 0x250F0, size: 0x8, addend: 0x0, symName: __ZNSt3__117__compressed_pairImNS_9allocatorINS_11__list_nodeINS_4pairINS_12basic_stringIcNS_11char_traitsIcEENS1_IcEEEES8_EEPvEEEEEC1B7v160006IiNS_18__default_init_tagEEEOT_OT0_, symObjAddr: 0xB234, symBinAddr: 0x10000F114, symSize: 0x3C }
  - { offsetInCU: 0x25147, offset: 0x25147, size: 0x8, addend: 0x0, symName: __ZNSt3__116__list_node_baseINS_4pairINS_12basic_stringIcNS_11char_traitsIcEENS_9allocatorIcEEEES7_EEPvEC2B7v160006Ev, symObjAddr: 0xB270, symBinAddr: 0x10000F150, symSize: 0x4C }
  - { offsetInCU: 0x25170, offset: 0x25170, size: 0x8, addend: 0x0, symName: __ZNSt3__117__compressed_pairImNS_9allocatorINS_11__list_nodeINS_4pairINS_12basic_stringIcNS_11char_traitsIcEENS1_IcEEEES8_EEPvEEEEEC2B7v160006IiNS_18__default_init_tagEEEOT_OT0_, symObjAddr: 0xB2BC, symBinAddr: 0x10000F19C, symSize: 0x40 }
  - { offsetInCU: 0x251C7, offset: 0x251C7, size: 0x8, addend: 0x0, symName: __ZNSt3__122__compressed_pair_elemINS_9allocatorINS_11__list_nodeINS_4pairINS_12basic_stringIcNS_11char_traitsIcEENS1_IcEEEES8_EEPvEEEELi1ELb1EEC2B7v160006ENS_18__default_init_tagE, symObjAddr: 0xB2FC, symBinAddr: 0x10000F1DC, symSize: 0x2C }
  - { offsetInCU: 0x251FA, offset: 0x251FA, size: 0x8, addend: 0x0, symName: __ZNSt3__19allocatorINS_11__list_nodeINS_4pairINS_12basic_stringIcNS_11char_traitsIcEENS0_IcEEEES7_EEPvEEEC2B7v160006Ev, symObjAddr: 0xB328, symBinAddr: 0x10000F208, symSize: 0x2C }
  - { offsetInCU: 0x25223, offset: 0x25223, size: 0x8, addend: 0x0, symName: __ZNSt3__116__non_trivial_ifILb1ENS_9allocatorINS_11__list_nodeINS_4pairINS_12basic_stringIcNS_11char_traitsIcEENS1_IcEEEES8_EEPvEEEEEC2B7v160006Ev, symObjAddr: 0xB354, symBinAddr: 0x10000F234, symSize: 0x14 }
  - { offsetInCU: 0x2524B, offset: 0x2524B, size: 0x8, addend: 0x0, symName: __ZNSt3__113unordered_mapINS_12basic_stringIcNS_11char_traitsIcEENS_9allocatorIcEEEENS_15__list_iteratorINS_4pairIS6_S6_EEPvEENS_4hashIS6_EENS_8equal_toIS6_EENS4_INS8_IKS6_SB_EEEEE4findB7v160006ERSG_, symObjAddr: 0xB368, symBinAddr: 0x10000F248, symSize: 0x40 }
  - { offsetInCU: 0x2527E, offset: 0x2527E, size: 0x8, addend: 0x0, symName: __ZNSt3__113unordered_mapINS_12basic_stringIcNS_11char_traitsIcEENS_9allocatorIcEEEENS_15__list_iteratorINS_4pairIS6_S6_EEPvEENS_4hashIS6_EENS_8equal_toIS6_EENS4_INS8_IKS6_SB_EEEEE3endB7v160006Ev, symObjAddr: 0xB3D8, symBinAddr: 0x10000F2B8, symSize: 0x38 }
  - { offsetInCU: 0x252A2, offset: 0x252A2, size: 0x8, addend: 0x0, symName: __ZNKSt3__113unordered_mapINS_12basic_stringIcNS_11char_traitsIcEENS_9allocatorIcEEEENS_15__list_iteratorINS_4pairIS6_S6_EEPvEENS_4hashIS6_EENS_8equal_toIS6_EENS4_INS8_IKS6_SB_EEEEE4sizeB7v160006Ev, symObjAddr: 0xB410, symBinAddr: 0x10000F2F0, symSize: 0x24 }
  - { offsetInCU: 0x252C6, offset: 0x252C6, size: 0x8, addend: 0x0, symName: __ZNSt3__113unordered_mapINS_12basic_stringIcNS_11char_traitsIcEENS_9allocatorIcEEEENS_15__list_iteratorINS_4pairIS6_S6_EEPvEENS_4hashIS6_EENS_8equal_toIS6_EENS4_INS8_IKS6_SB_EEEEE5eraseB7v160006ERSG_, symObjAddr: 0xB434, symBinAddr: 0x10000F314, symSize: 0x2C }
  - { offsetInCU: 0x252F9, offset: 0x252F9, size: 0x8, addend: 0x0, symName: __ZNSt3__14listINS_4pairINS_12basic_stringIcNS_11char_traitsIcEENS_9allocatorIcEEEES7_EENS5_IS8_EEE5frontB7v160006Ev, symObjAddr: 0xB460, symBinAddr: 0x10000F340, symSize: 0x2C }
  - { offsetInCU: 0x2531E, offset: 0x2531E, size: 0x8, addend: 0x0, symName: __ZNSt3__14listINS_4pairINS_12basic_stringIcNS_11char_traitsIcEENS_9allocatorIcEEEES7_EENS5_IS8_EEE5eraseENS_21__list_const_iteratorIS8_PvEE, symObjAddr: 0xB48C, symBinAddr: 0x10000F36C, symSize: 0xA4 }
  - { offsetInCU: 0x2538F, offset: 0x2538F, size: 0x8, addend: 0x0, symName: __ZNSt3__14listINS_4pairINS_12basic_stringIcNS_11char_traitsIcEENS_9allocatorIcEEEES7_EENS5_IS8_EEE5beginB7v160006Ev, symObjAddr: 0xB530, symBinAddr: 0x10000F410, symSize: 0x2C }
  - { offsetInCU: 0x253B4, offset: 0x253B4, size: 0x8, addend: 0x0, symName: __ZNSt3__121__list_const_iteratorINS_4pairINS_12basic_stringIcNS_11char_traitsIcEENS_9allocatorIcEEEES7_EEPvEC1B7v160006ERKNS_15__list_iteratorIS8_S9_EE, symObjAddr: 0xB55C, symBinAddr: 0x10000F43C, symSize: 0x34 }
  - { offsetInCU: 0x253EC, offset: 0x253EC, size: 0x8, addend: 0x0, symName: __ZNSt3__14listINS_4pairINS_12basic_stringIcNS_11char_traitsIcEENS_9allocatorIcEEEES7_EENS5_IS8_EEE9push_backEOS8_, symObjAddr: 0xB590, symBinAddr: 0x10000F470, symSize: 0xF4 }
  - { offsetInCU: 0x25440, offset: 0x25440, size: 0x8, addend: 0x0, symName: __ZNSt3__14pairINS_12basic_stringIcNS_11char_traitsIcEENS_9allocatorIcEEEES6_EC1B7v160006ILb1ELPv0EEERKS6_SB_, symObjAddr: 0xB684, symBinAddr: 0x10000F564, symSize: 0x3C }
  - { offsetInCU: 0x25494, offset: 0x25494, size: 0x8, addend: 0x0, symName: __ZNSt3__14listINS_4pairINS_12basic_stringIcNS_11char_traitsIcEENS_9allocatorIcEEEES7_EENS5_IS8_EEE3endB7v160006Ev, symObjAddr: 0xB718, symBinAddr: 0x10000F5F8, symSize: 0x2C }
  - { offsetInCU: 0x254B9, offset: 0x254B9, size: 0x8, addend: 0x0, symName: __ZNSt3__113unordered_mapINS_12basic_stringIcNS_11char_traitsIcEENS_9allocatorIcEEEENS_15__list_iteratorINS_4pairIS6_S6_EEPvEENS_4hashIS6_EENS_8equal_toIS6_EENS4_INS8_IKS6_SB_EEEEEixERSG_, symObjAddr: 0xB744, symBinAddr: 0x10000F624, symSize: 0x80 }
  - { offsetInCU: 0x254EE, offset: 0x254EE, size: 0x8, addend: 0x0, symName: __ZNKSt3__119__hash_map_iteratorINS_15__hash_iteratorIPNS_11__hash_nodeINS_17__hash_value_typeINS_12basic_stringIcNS_11char_traitsIcEENS_9allocatorIcEEEENS_15__list_iteratorINS_4pairIS9_S9_EEPvEEEESD_EEEEEptB7v160006Ev, symObjAddr: 0xB7C4, symBinAddr: 0x10000F6A4, symSize: 0x2C }
  - { offsetInCU: 0x25512, offset: 0x25512, size: 0x8, addend: 0x0, symName: __ZNKSt3__115__list_iteratorINS_4pairINS_12basic_stringIcNS_11char_traitsIcEENS_9allocatorIcEEEES7_EEPvEdeB7v160006Ev, symObjAddr: 0xB7F0, symBinAddr: 0x10000F6D0, symSize: 0x2C }
  - { offsetInCU: 0x25537, offset: 0x25537, size: 0x8, addend: 0x0, symName: __ZNSt3__14pairINS_12basic_stringIcNS_11char_traitsIcEENS_9allocatorIcEEEES6_EC1ERKS7_, symObjAddr: 0xB81C, symBinAddr: 0x10000F6FC, symSize: 0x34 }
  - { offsetInCU: 0x2556A, offset: 0x2556A, size: 0x8, addend: 0x0, symName: __ZNSt3__14listINS_4pairINS_12basic_stringIcNS_11char_traitsIcEENS_9allocatorIcEEEES7_EENS5_IS8_EEE9push_backERKS8_, symObjAddr: 0xB850, symBinAddr: 0x10000F730, symSize: 0xEC }
  - { offsetInCU: 0x255BD, offset: 0x255BD, size: 0x8, addend: 0x0, symName: __ZNKSt3__115__list_iteratorINS_4pairINS_12basic_stringIcNS_11char_traitsIcEENS_9allocatorIcEEEES7_EEPvEptB7v160006Ev, symObjAddr: 0xB93C, symBinAddr: 0x10000F81C, symSize: 0x30 }
  - { offsetInCU: 0x255E2, offset: 0x255E2, size: 0x8, addend: 0x0, symName: __ZNSt3__112__hash_tableINS_17__hash_value_typeINS_12basic_stringIcNS_11char_traitsIcEENS_9allocatorIcEEEENS_15__list_iteratorINS_4pairIS7_S7_EEPvEEEENS_22__unordered_map_hasherIS7_SD_NS_4hashIS7_EENS_8equal_toIS7_EELb1EEENS_21__unordered_map_equalIS7_SD_SI_SG_Lb1EEENS5_ISD_EEE4findIS7_EENS_15__hash_iteratorIPNS_11__hash_nodeISD_SB_EEEERKT_, symObjAddr: 0xB96C, symBinAddr: 0x10000F84C, symSize: 0x1B4 }
  - { offsetInCU: 0x2566B, offset: 0x2566B, size: 0x8, addend: 0x0, symName: __ZNSt3__119__hash_map_iteratorINS_15__hash_iteratorIPNS_11__hash_nodeINS_17__hash_value_typeINS_12basic_stringIcNS_11char_traitsIcEENS_9allocatorIcEEEENS_15__list_iteratorINS_4pairIS9_S9_EEPvEEEESD_EEEEEC1B7v160006ESI_, symObjAddr: 0xBB20, symBinAddr: 0x10000FA00, symSize: 0x34 }
  - { offsetInCU: 0x256A2, offset: 0x256A2, size: 0x8, addend: 0x0, symName: __ZNSt3__112__hash_tableINS_17__hash_value_typeINS_12basic_stringIcNS_11char_traitsIcEENS_9allocatorIcEEEENS_15__list_iteratorINS_4pairIS7_S7_EEPvEEEENS_22__unordered_map_hasherIS7_SD_NS_4hashIS7_EENS_8equal_toIS7_EELb1EEENS_21__unordered_map_equalIS7_SD_SI_SG_Lb1EEENS5_ISD_EEE13hash_functionB7v160006Ev, symObjAddr: 0xBB54, symBinAddr: 0x10000FA34, symSize: 0x28 }
  - { offsetInCU: 0x256C6, offset: 0x256C6, size: 0x8, addend: 0x0, symName: __ZNKSt3__122__unordered_map_hasherINS_12basic_stringIcNS_11char_traitsIcEENS_9allocatorIcEEEENS_17__hash_value_typeIS6_NS_15__list_iteratorINS_4pairIS6_S6_EEPvEEEENS_4hashIS6_EENS_8equal_toIS6_EELb1EEclB7v160006ERKS6_, symObjAddr: 0xBB7C, symBinAddr: 0x10000FA5C, symSize: 0x2C }
  - { offsetInCU: 0x256F9, offset: 0x256F9, size: 0x8, addend: 0x0, symName: __ZNKSt3__112__hash_tableINS_17__hash_value_typeINS_12basic_stringIcNS_11char_traitsIcEENS_9allocatorIcEEEENS_15__list_iteratorINS_4pairIS7_S7_EEPvEEEENS_22__unordered_map_hasherIS7_SD_NS_4hashIS7_EENS_8equal_toIS7_EELb1EEENS_21__unordered_map_equalIS7_SD_SI_SG_Lb1EEENS5_ISD_EEE12bucket_countB7v160006Ev, symObjAddr: 0xBBA8, symBinAddr: 0x10000FA88, symSize: 0x28 }
  - { offsetInCU: 0x2571D, offset: 0x2571D, size: 0x8, addend: 0x0, symName: __ZNKSt3__110unique_ptrIA_PNS_16__hash_node_baseIPNS_11__hash_nodeINS_17__hash_value_typeINS_12basic_stringIcNS_11char_traitsIcEENS_9allocatorIcEEEENS_15__list_iteratorINS_4pairIS9_S9_EEPvEEEESD_EEEENS_25__bucket_list_deallocatorINS7_ISJ_EEEEEixB7v160006Em, symObjAddr: 0xBBD0, symBinAddr: 0x10000FAB0, symSize: 0x34 }
  - { offsetInCU: 0x25751, offset: 0x25751, size: 0x8, addend: 0x0, symName: __ZNKSt3__116__hash_node_baseIPNS_11__hash_nodeINS_17__hash_value_typeINS_12basic_stringIcNS_11char_traitsIcEENS_9allocatorIcEEEENS_15__list_iteratorINS_4pairIS8_S8_EEPvEEEESC_EEE6__hashB7v160006Ev, symObjAddr: 0xBC04, symBinAddr: 0x10000FAE4, symSize: 0x18 }
  - { offsetInCU: 0x25775, offset: 0x25775, size: 0x8, addend: 0x0, symName: __ZNSt3__112__hash_tableINS_17__hash_value_typeINS_12basic_stringIcNS_11char_traitsIcEENS_9allocatorIcEEEENS_15__list_iteratorINS_4pairIS7_S7_EEPvEEEENS_22__unordered_map_hasherIS7_SD_NS_4hashIS7_EENS_8equal_toIS7_EELb1EEENS_21__unordered_map_equalIS7_SD_SI_SG_Lb1EEENS5_ISD_EEE6key_eqB7v160006Ev, symObjAddr: 0xBC1C, symBinAddr: 0x10000FAFC, symSize: 0x28 }
  - { offsetInCU: 0x25799, offset: 0x25799, size: 0x8, addend: 0x0, symName: __ZNKSt3__121__unordered_map_equalINS_12basic_stringIcNS_11char_traitsIcEENS_9allocatorIcEEEENS_17__hash_value_typeIS6_NS_15__list_iteratorINS_4pairIS6_S6_EEPvEEEENS_8equal_toIS6_EENS_4hashIS6_EELb1EEclB7v160006ERKSD_RKS6_, symObjAddr: 0xBC44, symBinAddr: 0x10000FB24, symSize: 0x48 }
  - { offsetInCU: 0x257DC, offset: 0x257DC, size: 0x8, addend: 0x0, symName: __ZNSt3__115__hash_iteratorIPNS_11__hash_nodeINS_17__hash_value_typeINS_12basic_stringIcNS_11char_traitsIcEENS_9allocatorIcEEEENS_15__list_iteratorINS_4pairIS8_S8_EEPvEEEESC_EEEC1B7v160006EPNS_16__hash_node_baseISG_EEPKv, symObjAddr: 0xBC8C, symBinAddr: 0x10000FB6C, symSize: 0x3C }
  - { offsetInCU: 0x25823, offset: 0x25823, size: 0x8, addend: 0x0, symName: __ZNSt3__112__hash_tableINS_17__hash_value_typeINS_12basic_stringIcNS_11char_traitsIcEENS_9allocatorIcEEEENS_15__list_iteratorINS_4pairIS7_S7_EEPvEEEENS_22__unordered_map_hasherIS7_SD_NS_4hashIS7_EENS_8equal_toIS7_EELb1EEENS_21__unordered_map_equalIS7_SD_SI_SG_Lb1EEENS5_ISD_EEE3endEv, symObjAddr: 0xBCC8, symBinAddr: 0x10000FBA8, symSize: 0x30 }
  - { offsetInCU: 0x25849, offset: 0x25849, size: 0x8, addend: 0x0, symName: __ZNSt3__117__compressed_pairImNS_22__unordered_map_hasherINS_12basic_stringIcNS_11char_traitsIcEENS_9allocatorIcEEEENS_17__hash_value_typeIS7_NS_15__list_iteratorINS_4pairIS7_S7_EEPvEEEENS_4hashIS7_EENS_8equal_toIS7_EELb1EEEE6secondB7v160006Ev, symObjAddr: 0xBCF8, symBinAddr: 0x10000FBD8, symSize: 0x24 }
  - { offsetInCU: 0x2586E, offset: 0x2586E, size: 0x8, addend: 0x0, symName: __ZNSt3__122__compressed_pair_elemINS_22__unordered_map_hasherINS_12basic_stringIcNS_11char_traitsIcEENS_9allocatorIcEEEENS_17__hash_value_typeIS7_NS_15__list_iteratorINS_4pairIS7_S7_EEPvEEEENS_4hashIS7_EENS_8equal_toIS7_EELb1EEELi1ELb1EE5__getB7v160006Ev, symObjAddr: 0xBD1C, symBinAddr: 0x10000FBFC, symSize: 0x14 }
  - { offsetInCU: 0x25892, offset: 0x25892, size: 0x8, addend: 0x0, symName: __ZNKSt3__113__string_hashIcNS_9allocatorIcEEEclERKNS_12basic_stringIcNS_11char_traitsIcEES2_EE, symObjAddr: 0xBD30, symBinAddr: 0x10000FC10, symSize: 0x64 }
  - { offsetInCU: 0x258C6, offset: 0x258C6, size: 0x8, addend: 0x0, symName: __ZNSt3__121__murmur2_or_cityhashImLm64EEclEPKvm, symObjAddr: 0xBDD0, symBinAddr: 0x10000FCB0, symSize: 0x410 }
  - { offsetInCU: 0x25960, offset: 0x25960, size: 0x8, addend: 0x0, symName: __ZNSt3__121__murmur2_or_cityhashImLm64EE18__hash_len_0_to_16EPKcm, symObjAddr: 0xC1E0, symBinAddr: 0x1000100C0, symSize: 0x1C0 }
  - { offsetInCU: 0x25A39, offset: 0x25A39, size: 0x8, addend: 0x0, symName: __ZNSt3__121__murmur2_or_cityhashImLm64EE19__hash_len_17_to_32EPKcm, symObjAddr: 0xC3A0, symBinAddr: 0x100010280, symSize: 0x130 }
  - { offsetInCU: 0x25AA2, offset: 0x25AA2, size: 0x8, addend: 0x0, symName: __ZNSt3__121__murmur2_or_cityhashImLm64EE19__hash_len_33_to_64EPKcm, symObjAddr: 0xC4D0, symBinAddr: 0x1000103B0, symSize: 0x2B8 }
  - { offsetInCU: 0x25B54, offset: 0x25B54, size: 0x8, addend: 0x0, symName: __ZNSt3__121__murmur2_or_cityhashImLm64EE13__hash_len_16Emm, symObjAddr: 0xC7A8, symBinAddr: 0x100010688, symSize: 0x80 }
  - { offsetInCU: 0x25BAF, offset: 0x25BAF, size: 0x8, addend: 0x0, symName: __ZNSt3__121__murmur2_or_cityhashImLm64EE29__weak_hash_len_32_with_seedsEPKcmm, symObjAddr: 0xC828, symBinAddr: 0x100010708, symSize: 0x88 }
  - { offsetInCU: 0x25BEE, offset: 0x25BEE, size: 0x8, addend: 0x0, symName: __ZNSt3__121__murmur2_or_cityhashImLm64EE8__rotateEmi, symObjAddr: 0xC8B0, symBinAddr: 0x100010790, symSize: 0x64 }
  - { offsetInCU: 0x25C1F, offset: 0x25C1F, size: 0x8, addend: 0x0, symName: __ZNSt3__14pairImmEaSB7v160006EOS1_, symObjAddr: 0xC914, symBinAddr: 0x1000107F4, symSize: 0x30 }
  - { offsetInCU: 0x25C53, offset: 0x25C53, size: 0x8, addend: 0x0, symName: __ZNSt3__121__murmur2_or_cityhashImLm64EE11__shift_mixEm, symObjAddr: 0xC980, symBinAddr: 0x100010860, symSize: 0x1C }
  - { offsetInCU: 0x25C76, offset: 0x25C76, size: 0x8, addend: 0x0, symName: __ZNSt3__121__murmur2_or_cityhashImLm64EE22__rotate_by_at_least_1Emi, symObjAddr: 0xC99C, symBinAddr: 0x10001087C, symSize: 0x38 }
  - { offsetInCU: 0x25CA7, offset: 0x25CA7, size: 0x8, addend: 0x0, symName: __ZNSt3__121__murmur2_or_cityhashImLm64EE29__weak_hash_len_32_with_seedsEmmmmmm, symObjAddr: 0xC9F4, symBinAddr: 0x1000108D4, symSize: 0xD8 }
  - { offsetInCU: 0x25D23, offset: 0x25D23, size: 0x8, addend: 0x0, symName: __ZNSt3__14pairImmEC1B7v160006ImmLPv0EEEOT_OT0_, symObjAddr: 0xCACC, symBinAddr: 0x1000109AC, symSize: 0x3C }
  - { offsetInCU: 0x25D80, offset: 0x25D80, size: 0x8, addend: 0x0, symName: __ZNSt3__14pairImmEC2B7v160006ImmLPv0EEEOT_OT0_, symObjAddr: 0xCB08, symBinAddr: 0x1000109E8, symSize: 0x34 }
  - { offsetInCU: 0x25DDC, offset: 0x25DDC, size: 0x8, addend: 0x0, symName: __ZNKSt3__110unique_ptrIA_PNS_16__hash_node_baseIPNS_11__hash_nodeINS_17__hash_value_typeINS_12basic_stringIcNS_11char_traitsIcEENS_9allocatorIcEEEENS_15__list_iteratorINS_4pairIS9_S9_EEPvEEEESD_EEEENS_25__bucket_list_deallocatorINS7_ISJ_EEEEE11get_deleterB7v160006Ev, symObjAddr: 0xCB3C, symBinAddr: 0x100010A1C, symSize: 0x24 }
  - { offsetInCU: 0x25E00, offset: 0x25E00, size: 0x8, addend: 0x0, symName: __ZNKSt3__125__bucket_list_deallocatorINS_9allocatorIPNS_16__hash_node_baseIPNS_11__hash_nodeINS_17__hash_value_typeINS_12basic_stringIcNS_11char_traitsIcEENS1_IcEEEENS_15__list_iteratorINS_4pairIS9_S9_EEPvEEEESD_EEEEEEE4sizeB7v160006Ev, symObjAddr: 0xCB60, symBinAddr: 0x100010A40, symSize: 0x28 }
  - { offsetInCU: 0x25E24, offset: 0x25E24, size: 0x8, addend: 0x0, symName: __ZNKSt3__117__compressed_pairIPPNS_16__hash_node_baseIPNS_11__hash_nodeINS_17__hash_value_typeINS_12basic_stringIcNS_11char_traitsIcEENS_9allocatorIcEEEENS_15__list_iteratorINS_4pairIS9_S9_EEPvEEEESD_EEEENS_25__bucket_list_deallocatorINS7_ISJ_EEEEE6secondB7v160006Ev, symObjAddr: 0xCB88, symBinAddr: 0x100010A68, symSize: 0x28 }
  - { offsetInCU: 0x25E49, offset: 0x25E49, size: 0x8, addend: 0x0, symName: __ZNKSt3__122__compressed_pair_elemINS_25__bucket_list_deallocatorINS_9allocatorIPNS_16__hash_node_baseIPNS_11__hash_nodeINS_17__hash_value_typeINS_12basic_stringIcNS_11char_traitsIcEENS2_IcEEEENS_15__list_iteratorINS_4pairISA_SA_EEPvEEEESE_EEEEEEEELi1ELb0EE5__getB7v160006Ev, symObjAddr: 0xCBB0, symBinAddr: 0x100010A90, symSize: 0x14 }
  - { offsetInCU: 0x25E6D, offset: 0x25E6D, size: 0x8, addend: 0x0, symName: __ZNKSt3__117__compressed_pairImNS_9allocatorIPNS_16__hash_node_baseIPNS_11__hash_nodeINS_17__hash_value_typeINS_12basic_stringIcNS_11char_traitsIcEENS1_IcEEEENS_15__list_iteratorINS_4pairIS9_S9_EEPvEEEESD_EEEEEEE5firstB7v160006Ev, symObjAddr: 0xCBC4, symBinAddr: 0x100010AA4, symSize: 0x24 }
  - { offsetInCU: 0x25E91, offset: 0x25E91, size: 0x8, addend: 0x0, symName: __ZNKSt3__117__compressed_pairIPPNS_16__hash_node_baseIPNS_11__hash_nodeINS_17__hash_value_typeINS_12basic_stringIcNS_11char_traitsIcEENS_9allocatorIcEEEENS_15__list_iteratorINS_4pairIS9_S9_EEPvEEEESD_EEEENS_25__bucket_list_deallocatorINS7_ISJ_EEEEE5firstB7v160006Ev, symObjAddr: 0xCBE8, symBinAddr: 0x100010AC8, symSize: 0x24 }
  - { offsetInCU: 0x25EB6, offset: 0x25EB6, size: 0x8, addend: 0x0, symName: __ZNKSt3__122__compressed_pair_elemIPPNS_16__hash_node_baseIPNS_11__hash_nodeINS_17__hash_value_typeINS_12basic_stringIcNS_11char_traitsIcEENS_9allocatorIcEEEENS_15__list_iteratorINS_4pairIS9_S9_EEPvEEEESD_EEEELi0ELb0EE5__getB7v160006Ev, symObjAddr: 0xCC0C, symBinAddr: 0x100010AEC, symSize: 0x14 }
  - { offsetInCU: 0x25EDA, offset: 0x25EDA, size: 0x8, addend: 0x0, symName: __ZNSt3__117__compressed_pairIfNS_21__unordered_map_equalINS_12basic_stringIcNS_11char_traitsIcEENS_9allocatorIcEEEENS_17__hash_value_typeIS7_NS_15__list_iteratorINS_4pairIS7_S7_EEPvEEEENS_8equal_toIS7_EENS_4hashIS7_EELb1EEEE6secondB7v160006Ev, symObjAddr: 0xCC20, symBinAddr: 0x100010B00, symSize: 0x24 }
  - { offsetInCU: 0x25EFF, offset: 0x25EFF, size: 0x8, addend: 0x0, symName: __ZNSt3__122__compressed_pair_elemINS_21__unordered_map_equalINS_12basic_stringIcNS_11char_traitsIcEENS_9allocatorIcEEEENS_17__hash_value_typeIS7_NS_15__list_iteratorINS_4pairIS7_S7_EEPvEEEENS_8equal_toIS7_EENS_4hashIS7_EELb1EEELi1ELb1EE5__getB7v160006Ev, symObjAddr: 0xCC44, symBinAddr: 0x100010B24, symSize: 0x14 }
  - { offsetInCU: 0x25F23, offset: 0x25F23, size: 0x8, addend: 0x0, symName: __ZNKSt3__18equal_toINS_12basic_stringIcNS_11char_traitsIcEENS_9allocatorIcEEEEEclB7v160006ERKS6_S9_, symObjAddr: 0xCC58, symBinAddr: 0x100010B38, symSize: 0x34 }
  - { offsetInCU: 0x25F65, offset: 0x25F65, size: 0x8, addend: 0x0, symName: __ZNKSt3__117__hash_value_typeINS_12basic_stringIcNS_11char_traitsIcEENS_9allocatorIcEEEENS_15__list_iteratorINS_4pairIS6_S6_EEPvEEE11__get_valueB7v160006Ev, symObjAddr: 0xCC8C, symBinAddr: 0x100010B6C, symSize: 0x24 }
  - { offsetInCU: 0x25F8A, offset: 0x25F8A, size: 0x8, addend: 0x0, symName: __ZNSt3__115__hash_iteratorIPNS_11__hash_nodeINS_17__hash_value_typeINS_12basic_stringIcNS_11char_traitsIcEENS_9allocatorIcEEEENS_15__list_iteratorINS_4pairIS8_S8_EEPvEEEESC_EEEC2B7v160006EPNS_16__hash_node_baseISG_EEPKv, symObjAddr: 0xCCE8, symBinAddr: 0x100010BC8, symSize: 0x24 }
  - { offsetInCU: 0x25FD1, offset: 0x25FD1, size: 0x8, addend: 0x0, symName: __ZNSt3__119__hash_map_iteratorINS_15__hash_iteratorIPNS_11__hash_nodeINS_17__hash_value_typeINS_12basic_stringIcNS_11char_traitsIcEENS_9allocatorIcEEEENS_15__list_iteratorINS_4pairIS9_S9_EEPvEEEESD_EEEEEC2B7v160006ESI_, symObjAddr: 0xCD0C, symBinAddr: 0x100010BEC, symSize: 0x20 }
  - { offsetInCU: 0x26008, offset: 0x26008, size: 0x8, addend: 0x0, symName: __ZNKSt3__112__hash_tableINS_17__hash_value_typeINS_12basic_stringIcNS_11char_traitsIcEENS_9allocatorIcEEEENS_15__list_iteratorINS_4pairIS7_S7_EEPvEEEENS_22__unordered_map_hasherIS7_SD_NS_4hashIS7_EENS_8equal_toIS7_EELb1EEENS_21__unordered_map_equalIS7_SD_SI_SG_Lb1EEENS5_ISD_EEE4sizeB7v160006Ev, symObjAddr: 0xCD5C, symBinAddr: 0x100010C3C, symSize: 0x2C }
  - { offsetInCU: 0x2602C, offset: 0x2602C, size: 0x8, addend: 0x0, symName: __ZNKSt3__117__compressed_pairImNS_22__unordered_map_hasherINS_12basic_stringIcNS_11char_traitsIcEENS_9allocatorIcEEEENS_17__hash_value_typeIS7_NS_15__list_iteratorINS_4pairIS7_S7_EEPvEEEENS_4hashIS7_EENS_8equal_toIS7_EELb1EEEE5firstB7v160006Ev, symObjAddr: 0xCD88, symBinAddr: 0x100010C68, symSize: 0x24 }
  - { offsetInCU: 0x26051, offset: 0x26051, size: 0x8, addend: 0x0, symName: __ZNSt3__112__hash_tableINS_17__hash_value_typeINS_12basic_stringIcNS_11char_traitsIcEENS_9allocatorIcEEEENS_15__list_iteratorINS_4pairIS7_S7_EEPvEEEENS_22__unordered_map_hasherIS7_SD_NS_4hashIS7_EENS_8equal_toIS7_EELb1EEENS_21__unordered_map_equalIS7_SD_SI_SG_Lb1EEENS5_ISD_EEE14__erase_uniqueIS7_EEmRKT_, symObjAddr: 0xCDAC, symBinAddr: 0x100010C8C, symSize: 0x98 }
  - { offsetInCU: 0x2609F, offset: 0x2609F, size: 0x8, addend: 0x0, symName: __ZNSt3__112__hash_tableINS_17__hash_value_typeINS_12basic_stringIcNS_11char_traitsIcEENS_9allocatorIcEEEENS_15__list_iteratorINS_4pairIS7_S7_EEPvEEEENS_22__unordered_map_hasherIS7_SD_NS_4hashIS7_EENS_8equal_toIS7_EELb1EEENS_21__unordered_map_equalIS7_SD_SI_SG_Lb1EEENS5_ISD_EEE5eraseENS_21__hash_const_iteratorIPNS_11__hash_nodeISD_SB_EEEE, symObjAddr: 0xCE44, symBinAddr: 0x100010D24, symSize: 0x70 }
  - { offsetInCU: 0x260F3, offset: 0x260F3, size: 0x8, addend: 0x0, symName: __ZNSt3__121__hash_const_iteratorIPNS_11__hash_nodeINS_17__hash_value_typeINS_12basic_stringIcNS_11char_traitsIcEENS_9allocatorIcEEEENS_15__list_iteratorINS_4pairIS8_S8_EEPvEEEESC_EEEC1B7v160006ERKNS_15__hash_iteratorISG_EE, symObjAddr: 0xCEB4, symBinAddr: 0x100010D94, symSize: 0x34 }
  - { offsetInCU: 0x2612B, offset: 0x2612B, size: 0x8, addend: 0x0, symName: __ZNSt3__115__hash_iteratorIPNS_11__hash_nodeINS_17__hash_value_typeINS_12basic_stringIcNS_11char_traitsIcEENS_9allocatorIcEEEENS_15__list_iteratorINS_4pairIS8_S8_EEPvEEEESC_EEEppB7v160006Ev, symObjAddr: 0xCEE8, symBinAddr: 0x100010DC8, symSize: 0x20 }
  - { offsetInCU: 0x26150, offset: 0x26150, size: 0x8, addend: 0x0, symName: __ZNSt3__112__hash_tableINS_17__hash_value_typeINS_12basic_stringIcNS_11char_traitsIcEENS_9allocatorIcEEEENS_15__list_iteratorINS_4pairIS7_S7_EEPvEEEENS_22__unordered_map_hasherIS7_SD_NS_4hashIS7_EENS_8equal_toIS7_EELb1EEENS_21__unordered_map_equalIS7_SD_SI_SG_Lb1EEENS5_ISD_EEE6removeENS_21__hash_const_iteratorIPNS_11__hash_nodeISD_SB_EEEE, symObjAddr: 0xCF08, symBinAddr: 0x100010DE8, symSize: 0x220 }
  - { offsetInCU: 0x261E0, offset: 0x261E0, size: 0x8, addend: 0x0, symName: __ZNSt3__110unique_ptrINS_11__hash_nodeINS_17__hash_value_typeINS_12basic_stringIcNS_11char_traitsIcEENS_9allocatorIcEEEENS_15__list_iteratorINS_4pairIS8_S8_EEPvEEEESC_EENS_22__hash_node_destructorINS6_ISF_EEEEED1B7v160006Ev, symObjAddr: 0xD128, symBinAddr: 0x100011008, symSize: 0x2C }
  - { offsetInCU: 0x26208, offset: 0x26208, size: 0x8, addend: 0x0, symName: __ZNSt3__116__hash_node_baseIPNS_11__hash_nodeINS_17__hash_value_typeINS_12basic_stringIcNS_11char_traitsIcEENS_9allocatorIcEEEENS_15__list_iteratorINS_4pairIS8_S8_EEPvEEEESC_EEE5__ptrB7v160006Ev, symObjAddr: 0xD154, symBinAddr: 0x100011034, symSize: 0x24 }
  - { offsetInCU: 0x2622C, offset: 0x2622C, size: 0x8, addend: 0x0, symName: __ZNSt3__112__hash_tableINS_17__hash_value_typeINS_12basic_stringIcNS_11char_traitsIcEENS_9allocatorIcEEEENS_15__list_iteratorINS_4pairIS7_S7_EEPvEEEENS_22__unordered_map_hasherIS7_SD_NS_4hashIS7_EENS_8equal_toIS7_EELb1EEENS_21__unordered_map_equalIS7_SD_SI_SG_Lb1EEENS5_ISD_EEE4sizeB7v160006Ev, symObjAddr: 0xD178, symBinAddr: 0x100011058, symSize: 0x28 }
  - { offsetInCU: 0x26251, offset: 0x26251, size: 0x8, addend: 0x0, symName: __ZNSt3__122__hash_node_destructorINS_9allocatorINS_11__hash_nodeINS_17__hash_value_typeINS_12basic_stringIcNS_11char_traitsIcEENS1_IcEEEENS_15__list_iteratorINS_4pairIS8_S8_EEPvEEEESC_EEEEEC1B7v160006ERSG_b, symObjAddr: 0xD1A0, symBinAddr: 0x100011080, symSize: 0x48 }
  - { offsetInCU: 0x2629D, offset: 0x2629D, size: 0x8, addend: 0x0, symName: __ZNSt3__110unique_ptrINS_11__hash_nodeINS_17__hash_value_typeINS_12basic_stringIcNS_11char_traitsIcEENS_9allocatorIcEEEENS_15__list_iteratorINS_4pairIS8_S8_EEPvEEEESC_EENS_22__hash_node_destructorINS6_ISF_EEEEEC1B7v160006ILb1EvEEPSF_NS_16__dependent_typeINS_27__unique_ptr_deleter_sfinaeISI_EEXT_EE20__good_rval_ref_typeE, symObjAddr: 0xD1E8, symBinAddr: 0x1000110C8, symSize: 0x3C }
  - { offsetInCU: 0x262EC, offset: 0x262EC, size: 0x8, addend: 0x0, symName: __ZNSt3__117__compressed_pairImNS_22__unordered_map_hasherINS_12basic_stringIcNS_11char_traitsIcEENS_9allocatorIcEEEENS_17__hash_value_typeIS7_NS_15__list_iteratorINS_4pairIS7_S7_EEPvEEEENS_4hashIS7_EENS_8equal_toIS7_EELb1EEEE5firstB7v160006Ev, symObjAddr: 0xD224, symBinAddr: 0x100011104, symSize: 0x24 }
  - { offsetInCU: 0x26311, offset: 0x26311, size: 0x8, addend: 0x0, symName: __ZNSt3__122__hash_node_destructorINS_9allocatorINS_11__hash_nodeINS_17__hash_value_typeINS_12basic_stringIcNS_11char_traitsIcEENS1_IcEEEENS_15__list_iteratorINS_4pairIS8_S8_EEPvEEEESC_EEEEEC2B7v160006ERSG_b, symObjAddr: 0xD248, symBinAddr: 0x100011128, symSize: 0x38 }
  - { offsetInCU: 0x26358, offset: 0x26358, size: 0x8, addend: 0x0, symName: __ZNSt3__110unique_ptrINS_11__hash_nodeINS_17__hash_value_typeINS_12basic_stringIcNS_11char_traitsIcEENS_9allocatorIcEEEENS_15__list_iteratorINS_4pairIS8_S8_EEPvEEEESC_EENS_22__hash_node_destructorINS6_ISF_EEEEEC2B7v160006ILb1EvEEPSF_NS_16__dependent_typeINS_27__unique_ptr_deleter_sfinaeISI_EEXT_EE20__good_rval_ref_typeE, symObjAddr: 0xD280, symBinAddr: 0x100011160, symSize: 0x48 }
  - { offsetInCU: 0x263A8, offset: 0x263A8, size: 0x8, addend: 0x0, symName: __ZNSt3__117__compressed_pairIPNS_11__hash_nodeINS_17__hash_value_typeINS_12basic_stringIcNS_11char_traitsIcEENS_9allocatorIcEEEENS_15__list_iteratorINS_4pairIS8_S8_EEPvEEEESC_EENS_22__hash_node_destructorINS6_ISF_EEEEEC1B7v160006IRSG_SJ_EEOT_OT0_, symObjAddr: 0xD2C8, symBinAddr: 0x1000111A8, symSize: 0x3C }
  - { offsetInCU: 0x263FF, offset: 0x263FF, size: 0x8, addend: 0x0, symName: __ZNSt3__117__compressed_pairIPNS_11__hash_nodeINS_17__hash_value_typeINS_12basic_stringIcNS_11char_traitsIcEENS_9allocatorIcEEEENS_15__list_iteratorINS_4pairIS8_S8_EEPvEEEESC_EENS_22__hash_node_destructorINS6_ISF_EEEEEC2B7v160006IRSG_SJ_EEOT_OT0_, symObjAddr: 0xD304, symBinAddr: 0x1000111E4, symSize: 0x48 }
  - { offsetInCU: 0x26456, offset: 0x26456, size: 0x8, addend: 0x0, symName: __ZNSt3__122__compressed_pair_elemIPNS_11__hash_nodeINS_17__hash_value_typeINS_12basic_stringIcNS_11char_traitsIcEENS_9allocatorIcEEEENS_15__list_iteratorINS_4pairIS8_S8_EEPvEEEESC_EELi0ELb0EEC2B7v160006IRSG_vEEOT_, symObjAddr: 0xD34C, symBinAddr: 0x10001122C, symSize: 0x24 }
  - { offsetInCU: 0x26497, offset: 0x26497, size: 0x8, addend: 0x0, symName: __ZNSt3__122__compressed_pair_elemINS_22__hash_node_destructorINS_9allocatorINS_11__hash_nodeINS_17__hash_value_typeINS_12basic_stringIcNS_11char_traitsIcEENS2_IcEEEENS_15__list_iteratorINS_4pairIS9_S9_EEPvEEEESD_EEEEEELi1ELb0EEC2B7v160006ISI_vEEOT_, symObjAddr: 0xD370, symBinAddr: 0x100011250, symSize: 0x24 }
  - { offsetInCU: 0x264D8, offset: 0x264D8, size: 0x8, addend: 0x0, symName: __ZNSt3__110unique_ptrINS_11__hash_nodeINS_17__hash_value_typeINS_12basic_stringIcNS_11char_traitsIcEENS_9allocatorIcEEEENS_15__list_iteratorINS_4pairIS8_S8_EEPvEEEESC_EENS_22__hash_node_destructorINS6_ISF_EEEEED2B7v160006Ev, symObjAddr: 0xD394, symBinAddr: 0x100011274, symSize: 0x30 }
  - { offsetInCU: 0x26500, offset: 0x26500, size: 0x8, addend: 0x0, symName: __ZNSt3__110unique_ptrINS_11__hash_nodeINS_17__hash_value_typeINS_12basic_stringIcNS_11char_traitsIcEENS_9allocatorIcEEEENS_15__list_iteratorINS_4pairIS8_S8_EEPvEEEESC_EENS_22__hash_node_destructorINS6_ISF_EEEEE5resetB7v160006EPSF_, symObjAddr: 0xD3C4, symBinAddr: 0x1000112A4, symSize: 0x78 }
  - { offsetInCU: 0x26542, offset: 0x26542, size: 0x8, addend: 0x0, symName: __ZNSt3__117__compressed_pairIPNS_11__hash_nodeINS_17__hash_value_typeINS_12basic_stringIcNS_11char_traitsIcEENS_9allocatorIcEEEENS_15__list_iteratorINS_4pairIS8_S8_EEPvEEEESC_EENS_22__hash_node_destructorINS6_ISF_EEEEE5firstB7v160006Ev, symObjAddr: 0xD43C, symBinAddr: 0x10001131C, symSize: 0x24 }
  - { offsetInCU: 0x26566, offset: 0x26566, size: 0x8, addend: 0x0, symName: __ZNSt3__117__compressed_pairIPNS_11__hash_nodeINS_17__hash_value_typeINS_12basic_stringIcNS_11char_traitsIcEENS_9allocatorIcEEEENS_15__list_iteratorINS_4pairIS8_S8_EEPvEEEESC_EENS_22__hash_node_destructorINS6_ISF_EEEEE6secondB7v160006Ev, symObjAddr: 0xD460, symBinAddr: 0x100011340, symSize: 0x28 }
  - { offsetInCU: 0x2658A, offset: 0x2658A, size: 0x8, addend: 0x0, symName: __ZNSt3__122__hash_node_destructorINS_9allocatorINS_11__hash_nodeINS_17__hash_value_typeINS_12basic_stringIcNS_11char_traitsIcEENS1_IcEEEENS_15__list_iteratorINS_4pairIS8_S8_EEPvEEEESC_EEEEEclB7v160006EPSF_, symObjAddr: 0xD488, symBinAddr: 0x100011368, symSize: 0x98 }
  - { offsetInCU: 0x265BE, offset: 0x265BE, size: 0x8, addend: 0x0, symName: __ZNSt3__122__compressed_pair_elemIPNS_11__hash_nodeINS_17__hash_value_typeINS_12basic_stringIcNS_11char_traitsIcEENS_9allocatorIcEEEENS_15__list_iteratorINS_4pairIS8_S8_EEPvEEEESC_EELi0ELb0EE5__getB7v160006Ev, symObjAddr: 0xD520, symBinAddr: 0x100011400, symSize: 0x14 }
  - { offsetInCU: 0x265E3, offset: 0x265E3, size: 0x8, addend: 0x0, symName: __ZNSt3__122__compressed_pair_elemINS_22__hash_node_destructorINS_9allocatorINS_11__hash_nodeINS_17__hash_value_typeINS_12basic_stringIcNS_11char_traitsIcEENS2_IcEEEENS_15__list_iteratorINS_4pairIS9_S9_EEPvEEEESD_EEEEEELi1ELb0EE5__getB7v160006Ev, symObjAddr: 0xD534, symBinAddr: 0x100011414, symSize: 0x14 }
  - { offsetInCU: 0x26608, offset: 0x26608, size: 0x8, addend: 0x0, symName: __ZNSt3__121__hash_const_iteratorIPNS_11__hash_nodeINS_17__hash_value_typeINS_12basic_stringIcNS_11char_traitsIcEENS_9allocatorIcEEEENS_15__list_iteratorINS_4pairIS8_S8_EEPvEEEESC_EEEC2B7v160006ERKNS_15__hash_iteratorISG_EE, symObjAddr: 0xD548, symBinAddr: 0x100011428, symSize: 0x24 }
  - { offsetInCU: 0x26640, offset: 0x26640, size: 0x8, addend: 0x0, symName: __ZNSt3__115__list_iteratorINS_4pairINS_12basic_stringIcNS_11char_traitsIcEENS_9allocatorIcEEEES7_EEPvEC1B7v160006EPNS_16__list_node_baseIS8_S9_EEPKv, symObjAddr: 0xD56C, symBinAddr: 0x10001144C, symSize: 0x3C }
  - { offsetInCU: 0x26687, offset: 0x26687, size: 0x8, addend: 0x0, symName: __ZNSt3__115__list_iteratorINS_4pairINS_12basic_stringIcNS_11char_traitsIcEENS_9allocatorIcEEEES7_EEPvEC2B7v160006EPNS_16__list_node_baseIS8_S9_EEPKv, symObjAddr: 0xD5A8, symBinAddr: 0x100011488, symSize: 0x24 }
  - { offsetInCU: 0x266CD, offset: 0x266CD, size: 0x8, addend: 0x0, symName: __ZNSt3__110__list_impINS_4pairINS_12basic_stringIcNS_11char_traitsIcEENS_9allocatorIcEEEES7_EENS5_IS8_EEE5beginB7v160006Ev, symObjAddr: 0xD5CC, symBinAddr: 0x1000114AC, symSize: 0x30 }
  - { offsetInCU: 0x266F2, offset: 0x266F2, size: 0x8, addend: 0x0, symName: __ZNSt3__121__list_const_iteratorINS_4pairINS_12basic_stringIcNS_11char_traitsIcEENS_9allocatorIcEEEES7_EEPvEC2B7v160006ERKNS_15__list_iteratorIS8_S9_EE, symObjAddr: 0xD5FC, symBinAddr: 0x1000114DC, symSize: 0x24 }
  - { offsetInCU: 0x26729, offset: 0x26729, size: 0x8, addend: 0x0, symName: __ZNSt3__14listINS_4pairINS_12basic_stringIcNS_11char_traitsIcEENS_9allocatorIcEEEES7_EENS5_IS8_EEE15__allocate_nodeB7v160006ERNS5_INS_11__list_nodeIS8_PvEEEE, symObjAddr: 0xD620, symBinAddr: 0x100011500, symSize: 0x70 }
  - { offsetInCU: 0x2676C, offset: 0x2676C, size: 0x8, addend: 0x0, symName: __ZNSt3__116allocator_traitsINS_9allocatorINS_11__list_nodeINS_4pairINS_12basic_stringIcNS_11char_traitsIcEENS1_IcEEEES8_EEPvEEEEE9constructB7v160006IS9_JS9_EvvEEvRSC_PT_DpOT0_, symObjAddr: 0xD690, symBinAddr: 0x100011570, symSize: 0x30 }
  - { offsetInCU: 0x267C0, offset: 0x267C0, size: 0x8, addend: 0x0, symName: __ZNKSt3__110unique_ptrINS_11__list_nodeINS_4pairINS_12basic_stringIcNS_11char_traitsIcEENS_9allocatorIcEEEES8_EEPvEENS_22__allocator_destructorINS6_ISB_EEEEEptB7v160006Ev, symObjAddr: 0xD6C0, symBinAddr: 0x1000115A0, symSize: 0x28 }
  - { offsetInCU: 0x267E5, offset: 0x267E5, size: 0x8, addend: 0x0, symName: __ZNSt3__14listINS_4pairINS_12basic_stringIcNS_11char_traitsIcEENS_9allocatorIcEEEES7_EENS5_IS8_EEE20__link_nodes_at_backEPNS_16__list_node_baseIS8_PvEESE_, symObjAddr: 0xD6E8, symBinAddr: 0x1000115C8, symSize: 0x60 }
  - { offsetInCU: 0x26829, offset: 0x26829, size: 0x8, addend: 0x0, symName: __ZNKSt3__110unique_ptrINS_11__list_nodeINS_4pairINS_12basic_stringIcNS_11char_traitsIcEENS_9allocatorIcEEEES8_EEPvEENS_22__allocator_destructorINS6_ISB_EEEEE3getB7v160006Ev, symObjAddr: 0xD748, symBinAddr: 0x100011628, symSize: 0x28 }
  - { offsetInCU: 0x2684D, offset: 0x2684D, size: 0x8, addend: 0x0, symName: __ZNSt3__111__list_nodeINS_4pairINS_12basic_stringIcNS_11char_traitsIcEENS_9allocatorIcEEEES7_EEPvE9__as_linkB7v160006Ev, symObjAddr: 0xD770, symBinAddr: 0x100011650, symSize: 0x24 }
  - { offsetInCU: 0x26871, offset: 0x26871, size: 0x8, addend: 0x0, symName: __ZNSt3__110unique_ptrINS_11__list_nodeINS_4pairINS_12basic_stringIcNS_11char_traitsIcEENS_9allocatorIcEEEES8_EEPvEENS_22__allocator_destructorINS6_ISB_EEEEE7releaseB7v160006Ev, symObjAddr: 0xD794, symBinAddr: 0x100011674, symSize: 0x44 }
  - { offsetInCU: 0x268A5, offset: 0x268A5, size: 0x8, addend: 0x0, symName: __ZNSt3__110unique_ptrINS_11__list_nodeINS_4pairINS_12basic_stringIcNS_11char_traitsIcEENS_9allocatorIcEEEES8_EEPvEENS_22__allocator_destructorINS6_ISB_EEEEED1B7v160006Ev, symObjAddr: 0xD7D8, symBinAddr: 0x1000116B8, symSize: 0x2C }
  - { offsetInCU: 0x268CE, offset: 0x268CE, size: 0x8, addend: 0x0, symName: __ZNSt3__116allocator_traitsINS_9allocatorINS_11__list_nodeINS_4pairINS_12basic_stringIcNS_11char_traitsIcEENS1_IcEEEES8_EEPvEEEEE8allocateB7v160006ERSC_m, symObjAddr: 0xD804, symBinAddr: 0x1000116E4, symSize: 0x2C }
  - { offsetInCU: 0x26901, offset: 0x26901, size: 0x8, addend: 0x0, symName: __ZNSt3__122__allocator_destructorINS_9allocatorINS_11__list_nodeINS_4pairINS_12basic_stringIcNS_11char_traitsIcEENS1_IcEEEES8_EEPvEEEEEC1B7v160006ERSC_m, symObjAddr: 0xD830, symBinAddr: 0x100011710, symSize: 0x3C }
  - { offsetInCU: 0x2694B, offset: 0x2694B, size: 0x8, addend: 0x0, symName: __ZNSt3__110unique_ptrINS_11__list_nodeINS_4pairINS_12basic_stringIcNS_11char_traitsIcEENS_9allocatorIcEEEES8_EEPvEENS_22__allocator_destructorINS6_ISB_EEEEEC1B7v160006ILb1EvEEPSB_NS_16__dependent_typeINS_27__unique_ptr_deleter_sfinaeISE_EEXT_EE20__good_rval_ref_typeE, symObjAddr: 0xD86C, symBinAddr: 0x10001174C, symSize: 0x3C }
  - { offsetInCU: 0x2699A, offset: 0x2699A, size: 0x8, addend: 0x0, symName: __ZNSt3__19allocatorINS_11__list_nodeINS_4pairINS_12basic_stringIcNS_11char_traitsIcEENS0_IcEEEES7_EEPvEEE8allocateB7v160006Em, symObjAddr: 0xD8A8, symBinAddr: 0x100011788, symSize: 0x58 }
  - { offsetInCU: 0x269D7, offset: 0x269D7, size: 0x8, addend: 0x0, symName: __ZNSt3__116allocator_traitsINS_9allocatorINS_11__list_nodeINS_4pairINS_12basic_stringIcNS_11char_traitsIcEENS1_IcEEEES8_EEPvEEEEE8max_sizeB7v160006ISC_vvEEmRKSC_, symObjAddr: 0xD900, symBinAddr: 0x1000117E0, symSize: 0x28 }
  - { offsetInCU: 0x26A03, offset: 0x26A03, size: 0x8, addend: 0x0, symName: __ZNSt3__122__allocator_destructorINS_9allocatorINS_11__list_nodeINS_4pairINS_12basic_stringIcNS_11char_traitsIcEENS1_IcEEEES8_EEPvEEEEEC2B7v160006ERSC_m, symObjAddr: 0xD928, symBinAddr: 0x100011808, symSize: 0x2C }
  - { offsetInCU: 0x26A48, offset: 0x26A48, size: 0x8, addend: 0x0, symName: __ZNSt3__110unique_ptrINS_11__list_nodeINS_4pairINS_12basic_stringIcNS_11char_traitsIcEENS_9allocatorIcEEEES8_EEPvEENS_22__allocator_destructorINS6_ISB_EEEEEC2B7v160006ILb1EvEEPSB_NS_16__dependent_typeINS_27__unique_ptr_deleter_sfinaeISE_EEXT_EE20__good_rval_ref_typeE, symObjAddr: 0xD954, symBinAddr: 0x100011834, symSize: 0x48 }
  - { offsetInCU: 0x26A98, offset: 0x26A98, size: 0x8, addend: 0x0, symName: __ZNSt3__117__compressed_pairIPNS_11__list_nodeINS_4pairINS_12basic_stringIcNS_11char_traitsIcEENS_9allocatorIcEEEES8_EEPvEENS_22__allocator_destructorINS6_ISB_EEEEEC1B7v160006IRSC_SF_EEOT_OT0_, symObjAddr: 0xD99C, symBinAddr: 0x10001187C, symSize: 0x3C }
  - { offsetInCU: 0x26AEF, offset: 0x26AEF, size: 0x8, addend: 0x0, symName: __ZNSt3__117__compressed_pairIPNS_11__list_nodeINS_4pairINS_12basic_stringIcNS_11char_traitsIcEENS_9allocatorIcEEEES8_EEPvEENS_22__allocator_destructorINS6_ISB_EEEEEC2B7v160006IRSC_SF_EEOT_OT0_, symObjAddr: 0xD9D8, symBinAddr: 0x1000118B8, symSize: 0x48 }
  - { offsetInCU: 0x26B46, offset: 0x26B46, size: 0x8, addend: 0x0, symName: __ZNSt3__122__compressed_pair_elemIPNS_11__list_nodeINS_4pairINS_12basic_stringIcNS_11char_traitsIcEENS_9allocatorIcEEEES8_EEPvEELi0ELb0EEC2B7v160006IRSC_vEEOT_, symObjAddr: 0xDA20, symBinAddr: 0x100011900, symSize: 0x24 }
  - { offsetInCU: 0x26B87, offset: 0x26B87, size: 0x8, addend: 0x0, symName: __ZNSt3__122__compressed_pair_elemINS_22__allocator_destructorINS_9allocatorINS_11__list_nodeINS_4pairINS_12basic_stringIcNS_11char_traitsIcEENS2_IcEEEES9_EEPvEEEEEELi1ELb0EEC2B7v160006ISE_vEEOT_, symObjAddr: 0xDA44, symBinAddr: 0x100011924, symSize: 0x24 }
  - { offsetInCU: 0x26BC8, offset: 0x26BC8, size: 0x8, addend: 0x0, symName: __ZNSt3__14pairINS_12basic_stringIcNS_11char_traitsIcEENS_9allocatorIcEEEES6_EC1EOS7_, symObjAddr: 0xDAA4, symBinAddr: 0x100011984, symSize: 0x34 }
  - { offsetInCU: 0x26BFB, offset: 0x26BFB, size: 0x8, addend: 0x0, symName: __ZNSt3__14pairINS_12basic_stringIcNS_11char_traitsIcEENS_9allocatorIcEEEES6_EC2EOS7_, symObjAddr: 0xDAD8, symBinAddr: 0x1000119B8, symSize: 0x48 }
  - { offsetInCU: 0x26C2D, offset: 0x26C2D, size: 0x8, addend: 0x0, symName: __ZNKSt3__117__compressed_pairIPNS_11__list_nodeINS_4pairINS_12basic_stringIcNS_11char_traitsIcEENS_9allocatorIcEEEES8_EEPvEENS_22__allocator_destructorINS6_ISB_EEEEE5firstB7v160006Ev, symObjAddr: 0xDB20, symBinAddr: 0x100011A00, symSize: 0x24 }
  - { offsetInCU: 0x26C52, offset: 0x26C52, size: 0x8, addend: 0x0, symName: __ZNKSt3__122__compressed_pair_elemIPNS_11__list_nodeINS_4pairINS_12basic_stringIcNS_11char_traitsIcEENS_9allocatorIcEEEES8_EEPvEELi0ELb0EE5__getB7v160006Ev, symObjAddr: 0xDB44, symBinAddr: 0x100011A24, symSize: 0x14 }
  - { offsetInCU: 0x26C76, offset: 0x26C76, size: 0x8, addend: 0x0, symName: __ZNSt3__117__compressed_pairIPNS_11__list_nodeINS_4pairINS_12basic_stringIcNS_11char_traitsIcEENS_9allocatorIcEEEES8_EEPvEENS_22__allocator_destructorINS6_ISB_EEEEE5firstB7v160006Ev, symObjAddr: 0xDB58, symBinAddr: 0x100011A38, symSize: 0x24 }
  - { offsetInCU: 0x26C9B, offset: 0x26C9B, size: 0x8, addend: 0x0, symName: __ZNSt3__122__compressed_pair_elemIPNS_11__list_nodeINS_4pairINS_12basic_stringIcNS_11char_traitsIcEENS_9allocatorIcEEEES8_EEPvEELi0ELb0EE5__getB7v160006Ev, symObjAddr: 0xDB7C, symBinAddr: 0x100011A5C, symSize: 0x14 }
  - { offsetInCU: 0x26CC0, offset: 0x26CC0, size: 0x8, addend: 0x0, symName: __ZNSt3__110unique_ptrINS_11__list_nodeINS_4pairINS_12basic_stringIcNS_11char_traitsIcEENS_9allocatorIcEEEES8_EEPvEENS_22__allocator_destructorINS6_ISB_EEEEED2B7v160006Ev, symObjAddr: 0xDB90, symBinAddr: 0x100011A70, symSize: 0x30 }
  - { offsetInCU: 0x26CE8, offset: 0x26CE8, size: 0x8, addend: 0x0, symName: __ZNSt3__110unique_ptrINS_11__list_nodeINS_4pairINS_12basic_stringIcNS_11char_traitsIcEENS_9allocatorIcEEEES8_EEPvEENS_22__allocator_destructorINS6_ISB_EEEEE5resetB7v160006EPSB_, symObjAddr: 0xDBC0, symBinAddr: 0x100011AA0, symSize: 0x78 }
  - { offsetInCU: 0x26D2A, offset: 0x26D2A, size: 0x8, addend: 0x0, symName: __ZNSt3__117__compressed_pairIPNS_11__list_nodeINS_4pairINS_12basic_stringIcNS_11char_traitsIcEENS_9allocatorIcEEEES8_EEPvEENS_22__allocator_destructorINS6_ISB_EEEEE6secondB7v160006Ev, symObjAddr: 0xDC38, symBinAddr: 0x100011B18, symSize: 0x28 }
  - { offsetInCU: 0x26D4E, offset: 0x26D4E, size: 0x8, addend: 0x0, symName: __ZNSt3__122__allocator_destructorINS_9allocatorINS_11__list_nodeINS_4pairINS_12basic_stringIcNS_11char_traitsIcEENS1_IcEEEES8_EEPvEEEEEclB7v160006EPSB_, symObjAddr: 0xDC60, symBinAddr: 0x100011B40, symSize: 0x34 }
  - { offsetInCU: 0x26D81, offset: 0x26D81, size: 0x8, addend: 0x0, symName: __ZNSt3__122__compressed_pair_elemINS_22__allocator_destructorINS_9allocatorINS_11__list_nodeINS_4pairINS_12basic_stringIcNS_11char_traitsIcEENS2_IcEEEES9_EEPvEEEEEELi1ELb0EE5__getB7v160006Ev, symObjAddr: 0xDC94, symBinAddr: 0x100011B74, symSize: 0x14 }
  - { offsetInCU: 0x26DA6, offset: 0x26DA6, size: 0x8, addend: 0x0, symName: __ZNSt3__14pairINS_12basic_stringIcNS_11char_traitsIcEENS_9allocatorIcEEEES6_EC2B7v160006ILb1ELPv0EEERKS6_SB_, symObjAddr: 0xDCA8, symBinAddr: 0x100011B88, symSize: 0x70 }
  - { offsetInCU: 0x26DFB, offset: 0x26DFB, size: 0x8, addend: 0x0, symName: __ZNSt3__115__list_iteratorINS_4pairINS_12basic_stringIcNS_11char_traitsIcEENS_9allocatorIcEEEES7_EEPvEppB7v160006Ev, symObjAddr: 0xDE0C, symBinAddr: 0x100011CEC, symSize: 0x20 }
  - { offsetInCU: 0x26E20, offset: 0x26E20, size: 0x8, addend: 0x0, symName: __ZNSt3__115__list_iteratorINS_4pairINS_12basic_stringIcNS_11char_traitsIcEENS_9allocatorIcEEEES7_EEPvEmmB7v160006Ev, symObjAddr: 0xDE2C, symBinAddr: 0x100011D0C, symSize: 0x20 }
  - { offsetInCU: 0x26E44, offset: 0x26E44, size: 0x8, addend: 0x0, symName: __ZNSt3__110__list_impINS_4pairINS_12basic_stringIcNS_11char_traitsIcEENS_9allocatorIcEEEES7_EENS5_IS8_EEE3endB7v160006Ev, symObjAddr: 0xDE4C, symBinAddr: 0x100011D2C, symSize: 0x3C }
  - { offsetInCU: 0x26E69, offset: 0x26E69, size: 0x8, addend: 0x0, symName: __ZNSt3__112__hash_tableINS_17__hash_value_typeINS_12basic_stringIcNS_11char_traitsIcEENS_9allocatorIcEEEENS_15__list_iteratorINS_4pairIS7_S7_EEPvEEEENS_22__unordered_map_hasherIS7_SD_NS_4hashIS7_EENS_8equal_toIS7_EELb1EEENS_21__unordered_map_equalIS7_SD_SI_SG_Lb1EEENS5_ISD_EEE25__emplace_unique_key_argsIS7_JRKNS_21piecewise_construct_tENS_5tupleIJRKS7_EEENSS_IJEEEEEENS9_INS_15__hash_iteratorIPNS_11__hash_nodeISD_SB_EEEEbEERKT_DpOT0_, symObjAddr: 0xDE88, symBinAddr: 0x100011D68, symSize: 0x498 }
  - { offsetInCU: 0x26F72, offset: 0x26F72, size: 0x8, addend: 0x0, symName: __ZNKSt3__115__hash_iteratorIPNS_11__hash_nodeINS_17__hash_value_typeINS_12basic_stringIcNS_11char_traitsIcEENS_9allocatorIcEEEENS_15__list_iteratorINS_4pairIS8_S8_EEPvEEEESC_EEEptB7v160006Ev, symObjAddr: 0xE34C, symBinAddr: 0x10001222C, symSize: 0x30 }
  - { offsetInCU: 0x26F97, offset: 0x26F97, size: 0x8, addend: 0x0, symName: __ZNSt3__112__hash_tableINS_17__hash_value_typeINS_12basic_stringIcNS_11char_traitsIcEENS_9allocatorIcEEEENS_15__list_iteratorINS_4pairIS7_S7_EEPvEEEENS_22__unordered_map_hasherIS7_SD_NS_4hashIS7_EENS_8equal_toIS7_EELb1EEENS_21__unordered_map_equalIS7_SD_SI_SG_Lb1EEENS5_ISD_EEE21__construct_node_hashIRKNS_21piecewise_construct_tEJNS_5tupleIJRKS7_EEENSS_IJEEEEEENS_10unique_ptrINS_11__hash_nodeISD_SB_EENS_22__hash_node_destructorINS5_ISZ_EEEEEEmOT_DpOT0_, symObjAddr: 0xE37C, symBinAddr: 0x10001225C, symSize: 0x150 }
  - { offsetInCU: 0x27031, offset: 0x27031, size: 0x8, addend: 0x0, symName: __ZNSt3__112__hash_tableINS_17__hash_value_typeINS_12basic_stringIcNS_11char_traitsIcEENS_9allocatorIcEEEENS_15__list_iteratorINS_4pairIS7_S7_EEPvEEEENS_22__unordered_map_hasherIS7_SD_NS_4hashIS7_EENS_8equal_toIS7_EELb1EEENS_21__unordered_map_equalIS7_SD_SI_SG_Lb1EEENS5_ISD_EEE15max_load_factorB7v160006Ev, symObjAddr: 0xE4CC, symBinAddr: 0x1000123AC, symSize: 0x28 }
  - { offsetInCU: 0x27055, offset: 0x27055, size: 0x8, addend: 0x0, symName: __ZNSt3__112__hash_tableINS_17__hash_value_typeINS_12basic_stringIcNS_11char_traitsIcEENS_9allocatorIcEEEENS_15__list_iteratorINS_4pairIS7_S7_EEPvEEEENS_22__unordered_map_hasherIS7_SD_NS_4hashIS7_EENS_8equal_toIS7_EELb1EEENS_21__unordered_map_equalIS7_SD_SI_SG_Lb1EEENS5_ISD_EEE15__rehash_uniqueB7v160006Em, symObjAddr: 0xE4F4, symBinAddr: 0x1000123D4, symSize: 0x2C }
  - { offsetInCU: 0x27088, offset: 0x27088, size: 0x8, addend: 0x0, symName: __ZNKSt3__110unique_ptrINS_11__hash_nodeINS_17__hash_value_typeINS_12basic_stringIcNS_11char_traitsIcEENS_9allocatorIcEEEENS_15__list_iteratorINS_4pairIS8_S8_EEPvEEEESC_EENS_22__hash_node_destructorINS6_ISF_EEEEEptB7v160006Ev, symObjAddr: 0xE520, symBinAddr: 0x100012400, symSize: 0x28 }
  - { offsetInCU: 0x270AC, offset: 0x270AC, size: 0x8, addend: 0x0, symName: __ZNKSt3__110unique_ptrINS_11__hash_nodeINS_17__hash_value_typeINS_12basic_stringIcNS_11char_traitsIcEENS_9allocatorIcEEEENS_15__list_iteratorINS_4pairIS8_S8_EEPvEEEESC_EENS_22__hash_node_destructorINS6_ISF_EEEEE3getB7v160006Ev, symObjAddr: 0xE548, symBinAddr: 0x100012428, symSize: 0x28 }
  - { offsetInCU: 0x270D0, offset: 0x270D0, size: 0x8, addend: 0x0, symName: __ZNSt3__110unique_ptrINS_11__hash_nodeINS_17__hash_value_typeINS_12basic_stringIcNS_11char_traitsIcEENS_9allocatorIcEEEENS_15__list_iteratorINS_4pairIS8_S8_EEPvEEEESC_EENS_22__hash_node_destructorINS6_ISF_EEEEE7releaseB7v160006Ev, symObjAddr: 0xE570, symBinAddr: 0x100012450, symSize: 0x44 }
  - { offsetInCU: 0x27109, offset: 0x27109, size: 0x8, addend: 0x0, symName: __ZNSt3__14pairINS_15__hash_iteratorIPNS_11__hash_nodeINS_17__hash_value_typeINS_12basic_stringIcNS_11char_traitsIcEENS_9allocatorIcEEEENS_15__list_iteratorINS0_IS9_S9_EEPvEEEESC_EEEEbEC1B7v160006ISH_RbLSC_0EEEOT_OT0_, symObjAddr: 0xE5B4, symBinAddr: 0x100012494, symSize: 0x3C }
  - { offsetInCU: 0x27166, offset: 0x27166, size: 0x8, addend: 0x0, symName: __ZNSt3__116allocator_traitsINS_9allocatorINS_11__hash_nodeINS_17__hash_value_typeINS_12basic_stringIcNS_11char_traitsIcEENS1_IcEEEENS_15__list_iteratorINS_4pairIS8_S8_EEPvEEEESC_EEEEE8allocateB7v160006ERSG_m, symObjAddr: 0xE5F0, symBinAddr: 0x1000124D0, symSize: 0x2C }
  - { offsetInCU: 0x27199, offset: 0x27199, size: 0x8, addend: 0x0, symName: __ZNSt3__116allocator_traitsINS_9allocatorINS_11__hash_nodeINS_17__hash_value_typeINS_12basic_stringIcNS_11char_traitsIcEENS1_IcEEEENS_15__list_iteratorINS_4pairIS8_S8_EEPvEEEESC_EEEEE9constructB7v160006INSA_IKS8_SD_EEJRKNS_21piecewise_construct_tENS_5tupleIJRSJ_EEENSO_IJEEEEvvEEvRSG_PT_DpOT0_, symObjAddr: 0xE61C, symBinAddr: 0x1000124FC, symSize: 0x40 }
  - { offsetInCU: 0x27215, offset: 0x27215, size: 0x8, addend: 0x0, symName: __ZNSt3__110unique_ptrINS_11__hash_nodeINS_17__hash_value_typeINS_12basic_stringIcNS_11char_traitsIcEENS_9allocatorIcEEEENS_15__list_iteratorINS_4pairIS8_S8_EEPvEEEESC_EENS_22__hash_node_destructorINS6_ISF_EEEEE11get_deleterB7v160006Ev, symObjAddr: 0xE65C, symBinAddr: 0x10001253C, symSize: 0x24 }
  - { offsetInCU: 0x27239, offset: 0x27239, size: 0x8, addend: 0x0, symName: __ZNSt3__19allocatorINS_11__hash_nodeINS_17__hash_value_typeINS_12basic_stringIcNS_11char_traitsIcEENS0_IcEEEENS_15__list_iteratorINS_4pairIS7_S7_EEPvEEEESB_EEE8allocateB7v160006Em, symObjAddr: 0xE680, symBinAddr: 0x100012560, symSize: 0x5C }
  - { offsetInCU: 0x27276, offset: 0x27276, size: 0x8, addend: 0x0, symName: __ZNSt3__116allocator_traitsINS_9allocatorINS_11__hash_nodeINS_17__hash_value_typeINS_12basic_stringIcNS_11char_traitsIcEENS1_IcEEEENS_15__list_iteratorINS_4pairIS8_S8_EEPvEEEESC_EEEEE8max_sizeB7v160006ISG_vvEEmRKSG_, symObjAddr: 0xE6DC, symBinAddr: 0x1000125BC, symSize: 0x28 }
  - { offsetInCU: 0x272A2, offset: 0x272A2, size: 0x8, addend: 0x0, symName: __ZNSt3__14pairIKNS_12basic_stringIcNS_11char_traitsIcEENS_9allocatorIcEEEENS_15__list_iteratorINS0_IS6_S6_EEPvEEEC1B7v160006IJRS7_EJEEENS_21piecewise_construct_tENS_5tupleIJDpT_EEENSG_IJDpT0_EEE, symObjAddr: 0xE754, symBinAddr: 0x100012634, symSize: 0x3C }
  - { offsetInCU: 0x27308, offset: 0x27308, size: 0x8, addend: 0x0, symName: __ZNSt3__14pairIKNS_12basic_stringIcNS_11char_traitsIcEENS_9allocatorIcEEEENS_15__list_iteratorINS0_IS6_S6_EEPvEEEC1B7v160006IJRS7_EJEJLm0EEJEEENS_21piecewise_construct_tERNS_5tupleIJDpT_EEERNSG_IJDpT0_EEENS_15__tuple_indicesIJXspT1_EEEENSP_IJXspT2_EEEE, symObjAddr: 0xE790, symBinAddr: 0x100012670, symSize: 0x3C }
  - { offsetInCU: 0x27397, offset: 0x27397, size: 0x8, addend: 0x0, symName: __ZNSt3__14pairIKNS_12basic_stringIcNS_11char_traitsIcEENS_9allocatorIcEEEENS_15__list_iteratorINS0_IS6_S6_EEPvEEEC2B7v160006IJRS7_EJEJLm0EEJEEENS_21piecewise_construct_tERNS_5tupleIJDpT_EEERNSG_IJDpT0_EEENS_15__tuple_indicesIJXspT1_EEEENSP_IJXspT2_EEEE, symObjAddr: 0xE7CC, symBinAddr: 0x1000126AC, symSize: 0x50 }
  - { offsetInCU: 0x27426, offset: 0x27426, size: 0x8, addend: 0x0, symName: __ZNSt3__115__list_iteratorINS_4pairINS_12basic_stringIcNS_11char_traitsIcEENS_9allocatorIcEEEES7_EEPvEC1B7v160006Ev, symObjAddr: 0xE840, symBinAddr: 0x100012720, symSize: 0x2C }
  - { offsetInCU: 0x2744F, offset: 0x2744F, size: 0x8, addend: 0x0, symName: __ZNSt3__112__tuple_leafILm0ERKNS_12basic_stringIcNS_11char_traitsIcEENS_9allocatorIcEEEELb0EE3getB7v160006Ev, symObjAddr: 0xE86C, symBinAddr: 0x10001274C, symSize: 0x18 }
  - { offsetInCU: 0x27474, offset: 0x27474, size: 0x8, addend: 0x0, symName: __ZNSt3__115__list_iteratorINS_4pairINS_12basic_stringIcNS_11char_traitsIcEENS_9allocatorIcEEEES7_EEPvEC2B7v160006Ev, symObjAddr: 0xE884, symBinAddr: 0x100012764, symSize: 0x38 }
  - { offsetInCU: 0x2749C, offset: 0x2749C, size: 0x8, addend: 0x0, symName: __ZNSt3__117__compressed_pairIfNS_21__unordered_map_equalINS_12basic_stringIcNS_11char_traitsIcEENS_9allocatorIcEEEENS_17__hash_value_typeIS7_NS_15__list_iteratorINS_4pairIS7_S7_EEPvEEEENS_8equal_toIS7_EENS_4hashIS7_EELb1EEEE5firstB7v160006Ev, symObjAddr: 0xE8CC, symBinAddr: 0x1000127AC, symSize: 0x24 }
  - { offsetInCU: 0x274C1, offset: 0x274C1, size: 0x8, addend: 0x0, symName: __ZNSt3__112__hash_tableINS_17__hash_value_typeINS_12basic_stringIcNS_11char_traitsIcEENS_9allocatorIcEEEENS_15__list_iteratorINS_4pairIS7_S7_EEPvEEEENS_22__unordered_map_hasherIS7_SD_NS_4hashIS7_EENS_8equal_toIS7_EELb1EEENS_21__unordered_map_equalIS7_SD_SI_SG_Lb1EEENS5_ISD_EEE8__rehashILb1EEEvm, symObjAddr: 0xE8F0, symBinAddr: 0x1000127D0, symSize: 0x1A8 }
  - { offsetInCU: 0x27510, offset: 0x27510, size: 0x8, addend: 0x0, symName: __ZNSt3__112__hash_tableINS_17__hash_value_typeINS_12basic_stringIcNS_11char_traitsIcEENS_9allocatorIcEEEENS_15__list_iteratorINS_4pairIS7_S7_EEPvEEEENS_22__unordered_map_hasherIS7_SD_NS_4hashIS7_EENS_8equal_toIS7_EELb1EEENS_21__unordered_map_equalIS7_SD_SI_SG_Lb1EEENS5_ISD_EEE11__do_rehashILb1EEEvm, symObjAddr: 0xEA98, symBinAddr: 0x100012978, symSize: 0x290 }
  - { offsetInCU: 0x275F1, offset: 0x275F1, size: 0x8, addend: 0x0, symName: __ZNSt3__110unique_ptrIA_PNS_16__hash_node_baseIPNS_11__hash_nodeINS_17__hash_value_typeINS_12basic_stringIcNS_11char_traitsIcEENS_9allocatorIcEEEENS_15__list_iteratorINS_4pairIS9_S9_EEPvEEEESD_EEEENS_25__bucket_list_deallocatorINS7_ISJ_EEEEE11get_deleterB7v160006Ev, symObjAddr: 0xED38, symBinAddr: 0x100012C18, symSize: 0x24 }
  - { offsetInCU: 0x27615, offset: 0x27615, size: 0x8, addend: 0x0, symName: __ZNSt3__110unique_ptrIA_PNS_16__hash_node_baseIPNS_11__hash_nodeINS_17__hash_value_typeINS_12basic_stringIcNS_11char_traitsIcEENS_9allocatorIcEEEENS_15__list_iteratorINS_4pairIS9_S9_EEPvEEEESD_EEEENS_25__bucket_list_deallocatorINS7_ISJ_EEEEE5resetB7v160006IPSJ_EENS_9enable_ifIXsr28_CheckArrayPointerConversionIT_EE5valueEvE4typeESS_, symObjAddr: 0xED5C, symBinAddr: 0x100012C3C, symSize: 0x78 }
  - { offsetInCU: 0x27661, offset: 0x27661, size: 0x8, addend: 0x0, symName: __ZNSt3__116allocator_traitsINS_9allocatorIPNS_16__hash_node_baseIPNS_11__hash_nodeINS_17__hash_value_typeINS_12basic_stringIcNS_11char_traitsIcEENS1_IcEEEENS_15__list_iteratorINS_4pairIS9_S9_EEPvEEEESD_EEEEEEE8allocateB7v160006ERSK_m, symObjAddr: 0xEDD4, symBinAddr: 0x100012CB4, symSize: 0x2C }
  - { offsetInCU: 0x27693, offset: 0x27693, size: 0x8, addend: 0x0, symName: __ZNSt3__19allocatorIPNS_16__hash_node_baseIPNS_11__hash_nodeINS_17__hash_value_typeINS_12basic_stringIcNS_11char_traitsIcEENS0_IcEEEENS_15__list_iteratorINS_4pairIS8_S8_EEPvEEEESC_EEEEE8allocateB7v160006Em, symObjAddr: 0xEE00, symBinAddr: 0x100012CE0, symSize: 0x58 }
  - { offsetInCU: 0x276D0, offset: 0x276D0, size: 0x8, addend: 0x0, symName: __ZNSt3__116allocator_traitsINS_9allocatorIPNS_16__hash_node_baseIPNS_11__hash_nodeINS_17__hash_value_typeINS_12basic_stringIcNS_11char_traitsIcEENS1_IcEEEENS_15__list_iteratorINS_4pairIS9_S9_EEPvEEEESD_EEEEEEE8max_sizeB7v160006ISK_vvEEmRKSK_, symObjAddr: 0xEE58, symBinAddr: 0x100012D38, symSize: 0x28 }
  - { offsetInCU: 0x276FB, offset: 0x276FB, size: 0x8, addend: 0x0, symName: __ZNKSt3__117__compressed_pairIPNS_11__hash_nodeINS_17__hash_value_typeINS_12basic_stringIcNS_11char_traitsIcEENS_9allocatorIcEEEENS_15__list_iteratorINS_4pairIS8_S8_EEPvEEEESC_EENS_22__hash_node_destructorINS6_ISF_EEEEE5firstB7v160006Ev, symObjAddr: 0xEE80, symBinAddr: 0x100012D60, symSize: 0x24 }
  - { offsetInCU: 0x27720, offset: 0x27720, size: 0x8, addend: 0x0, symName: __ZNKSt3__122__compressed_pair_elemIPNS_11__hash_nodeINS_17__hash_value_typeINS_12basic_stringIcNS_11char_traitsIcEENS_9allocatorIcEEEENS_15__list_iteratorINS_4pairIS8_S8_EEPvEEEESC_EELi0ELb0EE5__getB7v160006Ev, symObjAddr: 0xEEA4, symBinAddr: 0x100012D84, symSize: 0x14 }
  - { offsetInCU: 0x27745, offset: 0x27745, size: 0x8, addend: 0x0, symName: __ZNSt3__14pairINS_15__hash_iteratorIPNS_11__hash_nodeINS_17__hash_value_typeINS_12basic_stringIcNS_11char_traitsIcEENS_9allocatorIcEEEENS_15__list_iteratorINS0_IS9_S9_EEPvEEEESC_EEEEbEC2B7v160006ISH_RbLSC_0EEEOT_OT0_, symObjAddr: 0xEEB8, symBinAddr: 0x100012D98, symSize: 0x38 }
  - { offsetInCU: 0x277A2, offset: 0x277A2, size: 0x8, addend: 0x0, symName: __ZNSt3__15tupleIJRKNS_12basic_stringIcNS_11char_traitsIcEENS_9allocatorIcEEEEEEC1B7v160006INS_4_AndELi0EEES8_, symObjAddr: 0xEEF0, symBinAddr: 0x100012DD0, symSize: 0x34 }
  - { offsetInCU: 0x277E9, offset: 0x277E9, size: 0x8, addend: 0x0, symName: __ZNSt3__15tupleIJRKNS_12basic_stringIcNS_11char_traitsIcEENS_9allocatorIcEEEEEEC2B7v160006INS_4_AndELi0EEES8_, symObjAddr: 0xEF24, symBinAddr: 0x100012E04, symSize: 0x34 }
  - { offsetInCU: 0x27830, offset: 0x27830, size: 0x8, addend: 0x0, symName: __ZNSt3__112__tuple_implINS_15__tuple_indicesIJLm0EEEEJRKNS_12basic_stringIcNS_11char_traitsIcEENS_9allocatorIcEEEEEEC1B7v160006IJLm0EEJSA_EJEJEJSA_EEENS1_IJXspT_EEEENS_13__tuple_typesIJDpT0_EEENS1_IJXspT1_EEEENSE_IJDpT2_EEEDpOT3_, symObjAddr: 0xEF58, symBinAddr: 0x100012E38, symSize: 0x34 }
  - { offsetInCU: 0x278C4, offset: 0x278C4, size: 0x8, addend: 0x0, symName: __ZNSt3__112__tuple_implINS_15__tuple_indicesIJLm0EEEEJRKNS_12basic_stringIcNS_11char_traitsIcEENS_9allocatorIcEEEEEEC2B7v160006IJLm0EEJSA_EJEJEJSA_EEENS1_IJXspT_EEEENS_13__tuple_typesIJDpT0_EEENS1_IJXspT1_EEEENSE_IJDpT2_EEEDpOT3_, symObjAddr: 0xEF8C, symBinAddr: 0x100012E6C, symSize: 0x34 }
  - { offsetInCU: 0x27958, offset: 0x27958, size: 0x8, addend: 0x0, symName: __ZNSt3__112__tuple_leafILm0ERKNS_12basic_stringIcNS_11char_traitsIcEENS_9allocatorIcEEEELb0EEC2B7v160006IS8_vEEOT_, symObjAddr: 0xEFC0, symBinAddr: 0x100012EA0, symSize: 0x20 }
  - { offsetInCU: 0x2799A, offset: 0x2799A, size: 0x8, addend: 0x0, symName: __ZNSt3__114pointer_traitsIPNS_17__hash_value_typeINS_12basic_stringIcNS_11char_traitsIcEENS_9allocatorIcEEEENS_15__list_iteratorINS_4pairIS7_S7_EEPvEEEEE10pointer_toB7v160006ERSD_, symObjAddr: 0xEFE0, symBinAddr: 0x100012EC0, symSize: 0x14 }
  - { offsetInCU: 0x279BD, offset: 0x279BD, size: 0x8, addend: 0x0, symName: __ZNSt3__114pointer_traitsIPNS_4pairIKNS_12basic_stringIcNS_11char_traitsIcEENS_9allocatorIcEEEENS_15__list_iteratorINS1_IS7_S7_EEPvEEEEE10pointer_toB7v160006ERSD_, symObjAddr: 0xEFF4, symBinAddr: 0x100012ED4, symSize: 0x14 }
  - { offsetInCU: 0x279E0, offset: 0x279E0, size: 0x8, addend: 0x0, symName: __ZNSt3__14pairINS_12basic_stringIcNS_11char_traitsIcEENS_9allocatorIcEEEES6_EC2ERKS7_, symObjAddr: 0xF008, symBinAddr: 0x100012EE8, symSize: 0x70 }
  - { offsetInCU: 0x27A13, offset: 0x27A13, size: 0x8, addend: 0x0, symName: __ZNSt3__116allocator_traitsINS_9allocatorINS_11__list_nodeINS_4pairINS_12basic_stringIcNS_11char_traitsIcEENS1_IcEEEES8_EEPvEEEEE9constructB7v160006IS9_JRKS9_EvvEEvRSC_PT_DpOT0_, symObjAddr: 0xF078, symBinAddr: 0x100012F58, symSize: 0x30 }
  - { offsetInCU: 0x27A68, offset: 0x27A68, size: 0x8, addend: 0x0, symName: __ZNSt3__114pointer_traitsIPNS_4pairINS_12basic_stringIcNS_11char_traitsIcEENS_9allocatorIcEEEES7_EEE10pointer_toB7v160006ERS8_, symObjAddr: 0xF0E4, symBinAddr: 0x100012FC4, symSize: 0x14 }
  - { offsetInCU: 0x27A8B, offset: 0x27A8B, size: 0x8, addend: 0x0, symName: __ZN8LruCacheIiNSt3__112basic_stringIcNS0_11char_traitsIcEENS0_9allocatorIcEEEEEC2Ei, symObjAddr: 0xF0F8, symBinAddr: 0x100012FD8, symSize: 0x44 }
  - { offsetInCU: 0x27AC2, offset: 0x27AC2, size: 0x8, addend: 0x0, symName: __ZNSt3__113unordered_mapIiNS_15__list_iteratorINS_4pairIiNS_12basic_stringIcNS_11char_traitsIcEENS_9allocatorIcEEEEEEPvEENS_4hashIiEENS_8equal_toIiEENS6_INS2_IKiSB_EEEEEC1B7v160006Ev, symObjAddr: 0xF13C, symBinAddr: 0x10001301C, symSize: 0x2C }
  - { offsetInCU: 0x27AEB, offset: 0x27AEB, size: 0x8, addend: 0x0, symName: __ZNSt3__14listINS_4pairIiNS_12basic_stringIcNS_11char_traitsIcEENS_9allocatorIcEEEEEENS5_IS8_EEEC1B7v160006Ev, symObjAddr: 0xF168, symBinAddr: 0x100013048, symSize: 0x2C }
  - { offsetInCU: 0x27B14, offset: 0x27B14, size: 0x8, addend: 0x0, symName: __ZNSt3__113unordered_mapIiNS_15__list_iteratorINS_4pairIiNS_12basic_stringIcNS_11char_traitsIcEENS_9allocatorIcEEEEEEPvEENS_4hashIiEENS_8equal_toIiEENS6_INS2_IKiSB_EEEEEC2B7v160006Ev, symObjAddr: 0xF194, symBinAddr: 0x100013074, symSize: 0x3C }
  - { offsetInCU: 0x27B3D, offset: 0x27B3D, size: 0x8, addend: 0x0, symName: __ZNSt3__112__hash_tableINS_17__hash_value_typeIiNS_15__list_iteratorINS_4pairIiNS_12basic_stringIcNS_11char_traitsIcEENS_9allocatorIcEEEEEEPvEEEENS_22__unordered_map_hasherIiSD_NS_4hashIiEENS_8equal_toIiEELb1EEENS_21__unordered_map_equalIiSD_SI_SG_Lb1EEENS7_ISD_EEEC1Ev, symObjAddr: 0xF1D0, symBinAddr: 0x1000130B0, symSize: 0x2C }
  - { offsetInCU: 0x27B68, offset: 0x27B68, size: 0x8, addend: 0x0, symName: __ZNSt3__112__hash_tableINS_17__hash_value_typeIiNS_15__list_iteratorINS_4pairIiNS_12basic_stringIcNS_11char_traitsIcEENS_9allocatorIcEEEEEEPvEEEENS_22__unordered_map_hasherIiSD_NS_4hashIiEENS_8equal_toIiEELb1EEENS_21__unordered_map_equalIiSD_SI_SG_Lb1EEENS7_ISD_EEEC2Ev, symObjAddr: 0xF20C, symBinAddr: 0x1000130EC, symSize: 0x7C }
  - { offsetInCU: 0x27B93, offset: 0x27B93, size: 0x8, addend: 0x0, symName: __ZNSt3__110unique_ptrIA_PNS_16__hash_node_baseIPNS_11__hash_nodeINS_17__hash_value_typeIiNS_15__list_iteratorINS_4pairIiNS_12basic_stringIcNS_11char_traitsIcEENS_9allocatorIcEEEEEEPvEEEESD_EEEENS_25__bucket_list_deallocatorINS9_ISJ_EEEEEC1B7v160006ILb1EvEEv, symObjAddr: 0xF288, symBinAddr: 0x100013168, symSize: 0x2C }
  - { offsetInCU: 0x27BC7, offset: 0x27BC7, size: 0x8, addend: 0x0, symName: __ZNSt3__117__compressed_pairINS_16__hash_node_baseIPNS_11__hash_nodeINS_17__hash_value_typeIiNS_15__list_iteratorINS_4pairIiNS_12basic_stringIcNS_11char_traitsIcEENS_9allocatorIcEEEEEEPvEEEESD_EEEENS9_ISG_EEEC1B7v160006ILb1EvEEv, symObjAddr: 0xF2B4, symBinAddr: 0x100013194, symSize: 0x2C }
  - { offsetInCU: 0x27BFB, offset: 0x27BFB, size: 0x8, addend: 0x0, symName: __ZNSt3__117__compressed_pairImNS_22__unordered_map_hasherIiNS_17__hash_value_typeIiNS_15__list_iteratorINS_4pairIiNS_12basic_stringIcNS_11char_traitsIcEENS_9allocatorIcEEEEEEPvEEEENS_4hashIiEENS_8equal_toIiEELb1EEEEC1B7v160006IiNS_18__default_init_tagEEEOT_OT0_, symObjAddr: 0xF2E0, symBinAddr: 0x1000131C0, symSize: 0x3C }
  - { offsetInCU: 0x27C52, offset: 0x27C52, size: 0x8, addend: 0x0, symName: __ZNSt3__117__compressed_pairIfNS_21__unordered_map_equalIiNS_17__hash_value_typeIiNS_15__list_iteratorINS_4pairIiNS_12basic_stringIcNS_11char_traitsIcEENS_9allocatorIcEEEEEEPvEEEENS_8equal_toIiEENS_4hashIiEELb1EEEEC1B7v160006IfNS_18__default_init_tagEEEOT_OT0_, symObjAddr: 0xF31C, symBinAddr: 0x1000131FC, symSize: 0x3C }
  - { offsetInCU: 0x27CA9, offset: 0x27CA9, size: 0x8, addend: 0x0, symName: __ZNSt3__110unique_ptrIA_PNS_16__hash_node_baseIPNS_11__hash_nodeINS_17__hash_value_typeIiNS_15__list_iteratorINS_4pairIiNS_12basic_stringIcNS_11char_traitsIcEENS_9allocatorIcEEEEEEPvEEEESD_EEEENS_25__bucket_list_deallocatorINS9_ISJ_EEEEEC2B7v160006ILb1EvEEv, symObjAddr: 0xF358, symBinAddr: 0x100013238, symSize: 0x3C }
  - { offsetInCU: 0x27CDD, offset: 0x27CDD, size: 0x8, addend: 0x0, symName: __ZNSt3__117__compressed_pairIPPNS_16__hash_node_baseIPNS_11__hash_nodeINS_17__hash_value_typeIiNS_15__list_iteratorINS_4pairIiNS_12basic_stringIcNS_11char_traitsIcEENS_9allocatorIcEEEEEEPvEEEESD_EEEENS_25__bucket_list_deallocatorINS9_ISJ_EEEEEC1B7v160006INS_16__value_init_tagESQ_EEOT_OT0_, symObjAddr: 0xF394, symBinAddr: 0x100013274, symSize: 0x3C }
  - { offsetInCU: 0x27D34, offset: 0x27D34, size: 0x8, addend: 0x0, symName: __ZNSt3__117__compressed_pairIPPNS_16__hash_node_baseIPNS_11__hash_nodeINS_17__hash_value_typeIiNS_15__list_iteratorINS_4pairIiNS_12basic_stringIcNS_11char_traitsIcEENS_9allocatorIcEEEEEEPvEEEESD_EEEENS_25__bucket_list_deallocatorINS9_ISJ_EEEEEC2B7v160006INS_16__value_init_tagESQ_EEOT_OT0_, symObjAddr: 0xF3D0, symBinAddr: 0x1000132B0, symSize: 0x40 }
  - { offsetInCU: 0x27D8B, offset: 0x27D8B, size: 0x8, addend: 0x0, symName: __ZNSt3__122__compressed_pair_elemIPPNS_16__hash_node_baseIPNS_11__hash_nodeINS_17__hash_value_typeIiNS_15__list_iteratorINS_4pairIiNS_12basic_stringIcNS_11char_traitsIcEENS_9allocatorIcEEEEEEPvEEEESD_EEEELi0ELb0EEC2B7v160006ENS_16__value_init_tagE, symObjAddr: 0xF410, symBinAddr: 0x1000132F0, symSize: 0x18 }
  - { offsetInCU: 0x27DBE, offset: 0x27DBE, size: 0x8, addend: 0x0, symName: __ZNSt3__122__compressed_pair_elemINS_25__bucket_list_deallocatorINS_9allocatorIPNS_16__hash_node_baseIPNS_11__hash_nodeINS_17__hash_value_typeIiNS_15__list_iteratorINS_4pairIiNS_12basic_stringIcNS_11char_traitsIcEENS2_IcEEEEEEPvEEEESE_EEEEEEEELi1ELb0EEC2B7v160006ENS_16__value_init_tagE, symObjAddr: 0xF428, symBinAddr: 0x100013308, symSize: 0x2C }
  - { offsetInCU: 0x27DF1, offset: 0x27DF1, size: 0x8, addend: 0x0, symName: __ZNSt3__125__bucket_list_deallocatorINS_9allocatorIPNS_16__hash_node_baseIPNS_11__hash_nodeINS_17__hash_value_typeIiNS_15__list_iteratorINS_4pairIiNS_12basic_stringIcNS_11char_traitsIcEENS1_IcEEEEEEPvEEEESD_EEEEEEEC1B7v160006Ev, symObjAddr: 0xF454, symBinAddr: 0x100013334, symSize: 0x2C }
  - { offsetInCU: 0x27E1A, offset: 0x27E1A, size: 0x8, addend: 0x0, symName: __ZNSt3__125__bucket_list_deallocatorINS_9allocatorIPNS_16__hash_node_baseIPNS_11__hash_nodeINS_17__hash_value_typeIiNS_15__list_iteratorINS_4pairIiNS_12basic_stringIcNS_11char_traitsIcEENS1_IcEEEEEEPvEEEESD_EEEEEEEC2B7v160006Ev, symObjAddr: 0xF480, symBinAddr: 0x100013360, symSize: 0x40 }
  - { offsetInCU: 0x27E43, offset: 0x27E43, size: 0x8, addend: 0x0, symName: __ZNSt3__117__compressed_pairImNS_9allocatorIPNS_16__hash_node_baseIPNS_11__hash_nodeINS_17__hash_value_typeIiNS_15__list_iteratorINS_4pairIiNS_12basic_stringIcNS_11char_traitsIcEENS1_IcEEEEEEPvEEEESD_EEEEEEEC1B7v160006IiNS_18__default_init_tagEEEOT_OT0_, symObjAddr: 0xF4C0, symBinAddr: 0x1000133A0, symSize: 0x3C }
  - { offsetInCU: 0x27E9A, offset: 0x27E9A, size: 0x8, addend: 0x0, symName: __ZNSt3__117__compressed_pairImNS_9allocatorIPNS_16__hash_node_baseIPNS_11__hash_nodeINS_17__hash_value_typeIiNS_15__list_iteratorINS_4pairIiNS_12basic_stringIcNS_11char_traitsIcEENS1_IcEEEEEEPvEEEESD_EEEEEEEC2B7v160006IiNS_18__default_init_tagEEEOT_OT0_, symObjAddr: 0xF4FC, symBinAddr: 0x1000133DC, symSize: 0x40 }
  - { offsetInCU: 0x27EF1, offset: 0x27EF1, size: 0x8, addend: 0x0, symName: __ZNSt3__122__compressed_pair_elemINS_9allocatorIPNS_16__hash_node_baseIPNS_11__hash_nodeINS_17__hash_value_typeIiNS_15__list_iteratorINS_4pairIiNS_12basic_stringIcNS_11char_traitsIcEENS1_IcEEEEEEPvEEEESD_EEEEEELi1ELb1EEC2B7v160006ENS_18__default_init_tagE, symObjAddr: 0xF53C, symBinAddr: 0x10001341C, symSize: 0x2C }
  - { offsetInCU: 0x27F24, offset: 0x27F24, size: 0x8, addend: 0x0, symName: __ZNSt3__19allocatorIPNS_16__hash_node_baseIPNS_11__hash_nodeINS_17__hash_value_typeIiNS_15__list_iteratorINS_4pairIiNS_12basic_stringIcNS_11char_traitsIcEENS0_IcEEEEEEPvEEEESC_EEEEEC2B7v160006Ev, symObjAddr: 0xF568, symBinAddr: 0x100013448, symSize: 0x2C }
  - { offsetInCU: 0x27F4D, offset: 0x27F4D, size: 0x8, addend: 0x0, symName: __ZNSt3__116__non_trivial_ifILb1ENS_9allocatorIPNS_16__hash_node_baseIPNS_11__hash_nodeINS_17__hash_value_typeIiNS_15__list_iteratorINS_4pairIiNS_12basic_stringIcNS_11char_traitsIcEENS1_IcEEEEEEPvEEEESD_EEEEEEEC2B7v160006Ev, symObjAddr: 0xF594, symBinAddr: 0x100013474, symSize: 0x14 }
  - { offsetInCU: 0x27F76, offset: 0x27F76, size: 0x8, addend: 0x0, symName: __ZNSt3__117__compressed_pairINS_16__hash_node_baseIPNS_11__hash_nodeINS_17__hash_value_typeIiNS_15__list_iteratorINS_4pairIiNS_12basic_stringIcNS_11char_traitsIcEENS_9allocatorIcEEEEEEPvEEEESD_EEEENS9_ISG_EEEC2B7v160006ILb1EvEEv, symObjAddr: 0xF5A8, symBinAddr: 0x100013488, symSize: 0x34 }
  - { offsetInCU: 0x27FAA, offset: 0x27FAA, size: 0x8, addend: 0x0, symName: __ZNSt3__122__compressed_pair_elemINS_16__hash_node_baseIPNS_11__hash_nodeINS_17__hash_value_typeIiNS_15__list_iteratorINS_4pairIiNS_12basic_stringIcNS_11char_traitsIcEENS_9allocatorIcEEEEEEPvEEEESD_EEEELi0ELb0EEC2B7v160006ENS_16__value_init_tagE, symObjAddr: 0xF5DC, symBinAddr: 0x1000134BC, symSize: 0x2C }
  - { offsetInCU: 0x27FDD, offset: 0x27FDD, size: 0x8, addend: 0x0, symName: __ZNSt3__122__compressed_pair_elemINS_9allocatorINS_11__hash_nodeINS_17__hash_value_typeIiNS_15__list_iteratorINS_4pairIiNS_12basic_stringIcNS_11char_traitsIcEENS1_IcEEEEEEPvEEEESC_EEEELi1ELb1EEC2B7v160006ENS_16__value_init_tagE, symObjAddr: 0xF608, symBinAddr: 0x1000134E8, symSize: 0x2C }
  - { offsetInCU: 0x28010, offset: 0x28010, size: 0x8, addend: 0x0, symName: __ZNSt3__116__hash_node_baseIPNS_11__hash_nodeINS_17__hash_value_typeIiNS_15__list_iteratorINS_4pairIiNS_12basic_stringIcNS_11char_traitsIcEENS_9allocatorIcEEEEEEPvEEEESC_EEEC1B7v160006Ev, symObjAddr: 0xF634, symBinAddr: 0x100013514, symSize: 0x2C }
  - { offsetInCU: 0x28039, offset: 0x28039, size: 0x8, addend: 0x0, symName: __ZNSt3__116__hash_node_baseIPNS_11__hash_nodeINS_17__hash_value_typeIiNS_15__list_iteratorINS_4pairIiNS_12basic_stringIcNS_11char_traitsIcEENS_9allocatorIcEEEEEEPvEEEESC_EEEC2B7v160006Ev, symObjAddr: 0xF660, symBinAddr: 0x100013540, symSize: 0x18 }
  - { offsetInCU: 0x28062, offset: 0x28062, size: 0x8, addend: 0x0, symName: __ZNSt3__19allocatorINS_11__hash_nodeINS_17__hash_value_typeIiNS_15__list_iteratorINS_4pairIiNS_12basic_stringIcNS_11char_traitsIcEENS0_IcEEEEEEPvEEEESB_EEEC2B7v160006Ev, symObjAddr: 0xF678, symBinAddr: 0x100013558, symSize: 0x2C }
  - { offsetInCU: 0x2808B, offset: 0x2808B, size: 0x8, addend: 0x0, symName: __ZNSt3__116__non_trivial_ifILb1ENS_9allocatorINS_11__hash_nodeINS_17__hash_value_typeIiNS_15__list_iteratorINS_4pairIiNS_12basic_stringIcNS_11char_traitsIcEENS1_IcEEEEEEPvEEEESC_EEEEEC2B7v160006Ev, symObjAddr: 0xF6A4, symBinAddr: 0x100013584, symSize: 0x14 }
  - { offsetInCU: 0x280B4, offset: 0x280B4, size: 0x8, addend: 0x0, symName: __ZNSt3__117__compressed_pairImNS_22__unordered_map_hasherIiNS_17__hash_value_typeIiNS_15__list_iteratorINS_4pairIiNS_12basic_stringIcNS_11char_traitsIcEENS_9allocatorIcEEEEEEPvEEEENS_4hashIiEENS_8equal_toIiEELb1EEEEC2B7v160006IiNS_18__default_init_tagEEEOT_OT0_, symObjAddr: 0xF6B8, symBinAddr: 0x100013598, symSize: 0x40 }
  - { offsetInCU: 0x2810B, offset: 0x2810B, size: 0x8, addend: 0x0, symName: __ZNSt3__122__compressed_pair_elemINS_22__unordered_map_hasherIiNS_17__hash_value_typeIiNS_15__list_iteratorINS_4pairIiNS_12basic_stringIcNS_11char_traitsIcEENS_9allocatorIcEEEEEEPvEEEENS_4hashIiEENS_8equal_toIiEELb1EEELi1ELb1EEC2B7v160006ENS_18__default_init_tagE, symObjAddr: 0xF6F8, symBinAddr: 0x1000135D8, symSize: 0x2C }
  - { offsetInCU: 0x2813E, offset: 0x2813E, size: 0x8, addend: 0x0, symName: __ZNSt3__122__unordered_map_hasherIiNS_17__hash_value_typeIiNS_15__list_iteratorINS_4pairIiNS_12basic_stringIcNS_11char_traitsIcEENS_9allocatorIcEEEEEEPvEEEENS_4hashIiEENS_8equal_toIiEELb1EEC2B7v160006Ev, symObjAddr: 0xF724, symBinAddr: 0x100013604, symSize: 0x14 }
  - { offsetInCU: 0x28167, offset: 0x28167, size: 0x8, addend: 0x0, symName: __ZNSt3__117__compressed_pairIfNS_21__unordered_map_equalIiNS_17__hash_value_typeIiNS_15__list_iteratorINS_4pairIiNS_12basic_stringIcNS_11char_traitsIcEENS_9allocatorIcEEEEEEPvEEEENS_8equal_toIiEENS_4hashIiEELb1EEEEC2B7v160006IfNS_18__default_init_tagEEEOT_OT0_, symObjAddr: 0xF738, symBinAddr: 0x100013618, symSize: 0x40 }
  - { offsetInCU: 0x281BE, offset: 0x281BE, size: 0x8, addend: 0x0, symName: __ZNSt3__122__compressed_pair_elemINS_21__unordered_map_equalIiNS_17__hash_value_typeIiNS_15__list_iteratorINS_4pairIiNS_12basic_stringIcNS_11char_traitsIcEENS_9allocatorIcEEEEEEPvEEEENS_8equal_toIiEENS_4hashIiEELb1EEELi1ELb1EEC2B7v160006ENS_18__default_init_tagE, symObjAddr: 0xF778, symBinAddr: 0x100013658, symSize: 0x2C }
  - { offsetInCU: 0x281F1, offset: 0x281F1, size: 0x8, addend: 0x0, symName: __ZNSt3__121__unordered_map_equalIiNS_17__hash_value_typeIiNS_15__list_iteratorINS_4pairIiNS_12basic_stringIcNS_11char_traitsIcEENS_9allocatorIcEEEEEEPvEEEENS_8equal_toIiEENS_4hashIiEELb1EEC2B7v160006Ev, symObjAddr: 0xF7A4, symBinAddr: 0x100013684, symSize: 0x14 }
  - { offsetInCU: 0x2821A, offset: 0x2821A, size: 0x8, addend: 0x0, symName: __ZNSt3__14listINS_4pairIiNS_12basic_stringIcNS_11char_traitsIcEENS_9allocatorIcEEEEEENS5_IS8_EEEC2B7v160006Ev, symObjAddr: 0xF7B8, symBinAddr: 0x100013698, symSize: 0x3C }
  - { offsetInCU: 0x28243, offset: 0x28243, size: 0x8, addend: 0x0, symName: __ZNSt3__110__list_impINS_4pairIiNS_12basic_stringIcNS_11char_traitsIcEENS_9allocatorIcEEEEEENS5_IS8_EEEC2Ev, symObjAddr: 0xF7F4, symBinAddr: 0x1000136D4, symSize: 0x50 }
  - { offsetInCU: 0x2826E, offset: 0x2826E, size: 0x8, addend: 0x0, symName: __ZNSt3__116__list_node_baseINS_4pairIiNS_12basic_stringIcNS_11char_traitsIcEENS_9allocatorIcEEEEEEPvEC1B7v160006Ev, symObjAddr: 0xF854, symBinAddr: 0x100013734, symSize: 0x2C }
  - { offsetInCU: 0x28297, offset: 0x28297, size: 0x8, addend: 0x0, symName: __ZNSt3__117__compressed_pairImNS_9allocatorINS_11__list_nodeINS_4pairIiNS_12basic_stringIcNS_11char_traitsIcEENS1_IcEEEEEEPvEEEEEC1B7v160006IiNS_18__default_init_tagEEEOT_OT0_, symObjAddr: 0xF880, symBinAddr: 0x100013760, symSize: 0x3C }
  - { offsetInCU: 0x282EE, offset: 0x282EE, size: 0x8, addend: 0x0, symName: __ZNSt3__116__list_node_baseINS_4pairIiNS_12basic_stringIcNS_11char_traitsIcEENS_9allocatorIcEEEEEEPvEC2B7v160006Ev, symObjAddr: 0xF8BC, symBinAddr: 0x10001379C, symSize: 0x4C }
  - { offsetInCU: 0x28317, offset: 0x28317, size: 0x8, addend: 0x0, symName: __ZNSt3__117__compressed_pairImNS_9allocatorINS_11__list_nodeINS_4pairIiNS_12basic_stringIcNS_11char_traitsIcEENS1_IcEEEEEEPvEEEEEC2B7v160006IiNS_18__default_init_tagEEEOT_OT0_, symObjAddr: 0xF908, symBinAddr: 0x1000137E8, symSize: 0x40 }
  - { offsetInCU: 0x2836E, offset: 0x2836E, size: 0x8, addend: 0x0, symName: __ZNSt3__122__compressed_pair_elemINS_9allocatorINS_11__list_nodeINS_4pairIiNS_12basic_stringIcNS_11char_traitsIcEENS1_IcEEEEEEPvEEEELi1ELb1EEC2B7v160006ENS_18__default_init_tagE, symObjAddr: 0xF948, symBinAddr: 0x100013828, symSize: 0x2C }
  - { offsetInCU: 0x283A1, offset: 0x283A1, size: 0x8, addend: 0x0, symName: __ZNSt3__19allocatorINS_11__list_nodeINS_4pairIiNS_12basic_stringIcNS_11char_traitsIcEENS0_IcEEEEEEPvEEEC2B7v160006Ev, symObjAddr: 0xF974, symBinAddr: 0x100013854, symSize: 0x2C }
  - { offsetInCU: 0x283CA, offset: 0x283CA, size: 0x8, addend: 0x0, symName: __ZNSt3__116__non_trivial_ifILb1ENS_9allocatorINS_11__list_nodeINS_4pairIiNS_12basic_stringIcNS_11char_traitsIcEENS1_IcEEEEEEPvEEEEEC2B7v160006Ev, symObjAddr: 0xF9A0, symBinAddr: 0x100013880, symSize: 0x14 }
  - { offsetInCU: 0x283F2, offset: 0x283F2, size: 0x8, addend: 0x0, symName: __ZNSt3__113unordered_mapIiNS_15__list_iteratorINS_4pairIiNS_12basic_stringIcNS_11char_traitsIcEENS_9allocatorIcEEEEEEPvEENS_4hashIiEENS_8equal_toIiEENS6_INS2_IKiSB_EEEEE4findB7v160006ERSG_, symObjAddr: 0xF9B4, symBinAddr: 0x100013894, symSize: 0x40 }
  - { offsetInCU: 0x28425, offset: 0x28425, size: 0x8, addend: 0x0, symName: __ZNSt3__113unordered_mapIiNS_15__list_iteratorINS_4pairIiNS_12basic_stringIcNS_11char_traitsIcEENS_9allocatorIcEEEEEEPvEENS_4hashIiEENS_8equal_toIiEENS6_INS2_IKiSB_EEEEE3endB7v160006Ev, symObjAddr: 0xFA24, symBinAddr: 0x100013904, symSize: 0x38 }
  - { offsetInCU: 0x28449, offset: 0x28449, size: 0x8, addend: 0x0, symName: __ZNKSt3__113unordered_mapIiNS_15__list_iteratorINS_4pairIiNS_12basic_stringIcNS_11char_traitsIcEENS_9allocatorIcEEEEEEPvEENS_4hashIiEENS_8equal_toIiEENS6_INS2_IKiSB_EEEEE4sizeB7v160006Ev, symObjAddr: 0xFA5C, symBinAddr: 0x10001393C, symSize: 0x24 }
  - { offsetInCU: 0x2846D, offset: 0x2846D, size: 0x8, addend: 0x0, symName: __ZNSt3__113unordered_mapIiNS_15__list_iteratorINS_4pairIiNS_12basic_stringIcNS_11char_traitsIcEENS_9allocatorIcEEEEEEPvEENS_4hashIiEENS_8equal_toIiEENS6_INS2_IKiSB_EEEEE5eraseB7v160006ERSG_, symObjAddr: 0xFA80, symBinAddr: 0x100013960, symSize: 0x2C }
  - { offsetInCU: 0x284A0, offset: 0x284A0, size: 0x8, addend: 0x0, symName: __ZNSt3__14listINS_4pairIiNS_12basic_stringIcNS_11char_traitsIcEENS_9allocatorIcEEEEEENS5_IS8_EEE5frontB7v160006Ev, symObjAddr: 0xFAAC, symBinAddr: 0x10001398C, symSize: 0x2C }
  - { offsetInCU: 0x284C5, offset: 0x284C5, size: 0x8, addend: 0x0, symName: __ZNSt3__14listINS_4pairIiNS_12basic_stringIcNS_11char_traitsIcEENS_9allocatorIcEEEEEENS5_IS8_EEE5eraseENS_21__list_const_iteratorIS8_PvEE, symObjAddr: 0xFAD8, symBinAddr: 0x1000139B8, symSize: 0xA4 }
  - { offsetInCU: 0x28536, offset: 0x28536, size: 0x8, addend: 0x0, symName: __ZNSt3__14listINS_4pairIiNS_12basic_stringIcNS_11char_traitsIcEENS_9allocatorIcEEEEEENS5_IS8_EEE5beginB7v160006Ev, symObjAddr: 0xFB7C, symBinAddr: 0x100013A5C, symSize: 0x2C }
  - { offsetInCU: 0x2855B, offset: 0x2855B, size: 0x8, addend: 0x0, symName: __ZNSt3__121__list_const_iteratorINS_4pairIiNS_12basic_stringIcNS_11char_traitsIcEENS_9allocatorIcEEEEEEPvEC1B7v160006ERKNS_15__list_iteratorIS8_S9_EE, symObjAddr: 0xFBA8, symBinAddr: 0x100013A88, symSize: 0x34 }
  - { offsetInCU: 0x28593, offset: 0x28593, size: 0x8, addend: 0x0, symName: __ZNSt3__14listINS_4pairIiNS_12basic_stringIcNS_11char_traitsIcEENS_9allocatorIcEEEEEENS5_IS8_EEE9push_backEOS8_, symObjAddr: 0xFBDC, symBinAddr: 0x100013ABC, symSize: 0xF4 }
  - { offsetInCU: 0x285E7, offset: 0x285E7, size: 0x8, addend: 0x0, symName: __ZNSt3__14pairIiNS_12basic_stringIcNS_11char_traitsIcEENS_9allocatorIcEEEEEC1B7v160006ILb1ELPv0EEERKiRKS6_, symObjAddr: 0xFCD0, symBinAddr: 0x100013BB0, symSize: 0x3C }
  - { offsetInCU: 0x2863B, offset: 0x2863B, size: 0x8, addend: 0x0, symName: __ZNSt3__14listINS_4pairIiNS_12basic_stringIcNS_11char_traitsIcEENS_9allocatorIcEEEEEENS5_IS8_EEE3endB7v160006Ev, symObjAddr: 0xFD64, symBinAddr: 0x100013C44, symSize: 0x2C }
  - { offsetInCU: 0x28660, offset: 0x28660, size: 0x8, addend: 0x0, symName: __ZNSt3__113unordered_mapIiNS_15__list_iteratorINS_4pairIiNS_12basic_stringIcNS_11char_traitsIcEENS_9allocatorIcEEEEEEPvEENS_4hashIiEENS_8equal_toIiEENS6_INS2_IKiSB_EEEEEixERSG_, symObjAddr: 0xFD90, symBinAddr: 0x100013C70, symSize: 0x80 }
  - { offsetInCU: 0x28695, offset: 0x28695, size: 0x8, addend: 0x0, symName: __ZNKSt3__119__hash_map_iteratorINS_15__hash_iteratorIPNS_11__hash_nodeINS_17__hash_value_typeIiNS_15__list_iteratorINS_4pairIiNS_12basic_stringIcNS_11char_traitsIcEENS_9allocatorIcEEEEEEPvEEEESD_EEEEEptB7v160006Ev, symObjAddr: 0xFE10, symBinAddr: 0x100013CF0, symSize: 0x2C }
  - { offsetInCU: 0x286B9, offset: 0x286B9, size: 0x8, addend: 0x0, symName: __ZNKSt3__115__list_iteratorINS_4pairIiNS_12basic_stringIcNS_11char_traitsIcEENS_9allocatorIcEEEEEEPvEdeB7v160006Ev, symObjAddr: 0xFE3C, symBinAddr: 0x100013D1C, symSize: 0x2C }
  - { offsetInCU: 0x286DE, offset: 0x286DE, size: 0x8, addend: 0x0, symName: __ZNSt3__14pairIiNS_12basic_stringIcNS_11char_traitsIcEENS_9allocatorIcEEEEEC1ERKS7_, symObjAddr: 0xFE68, symBinAddr: 0x100013D48, symSize: 0x34 }
  - { offsetInCU: 0x28711, offset: 0x28711, size: 0x8, addend: 0x0, symName: __ZNSt3__14listINS_4pairIiNS_12basic_stringIcNS_11char_traitsIcEENS_9allocatorIcEEEEEENS5_IS8_EEE9push_backERKS8_, symObjAddr: 0xFE9C, symBinAddr: 0x100013D7C, symSize: 0xEC }
  - { offsetInCU: 0x28764, offset: 0x28764, size: 0x8, addend: 0x0, symName: __ZNKSt3__115__list_iteratorINS_4pairIiNS_12basic_stringIcNS_11char_traitsIcEENS_9allocatorIcEEEEEEPvEptB7v160006Ev, symObjAddr: 0xFF88, symBinAddr: 0x100013E68, symSize: 0x30 }
  - { offsetInCU: 0x28789, offset: 0x28789, size: 0x8, addend: 0x0, symName: __ZNSt3__112__hash_tableINS_17__hash_value_typeIiNS_15__list_iteratorINS_4pairIiNS_12basic_stringIcNS_11char_traitsIcEENS_9allocatorIcEEEEEEPvEEEENS_22__unordered_map_hasherIiSD_NS_4hashIiEENS_8equal_toIiEELb1EEENS_21__unordered_map_equalIiSD_SI_SG_Lb1EEENS7_ISD_EEE4findIiEENS_15__hash_iteratorIPNS_11__hash_nodeISD_SB_EEEERKT_, symObjAddr: 0xFFB8, symBinAddr: 0x100013E98, symSize: 0x1B4 }
  - { offsetInCU: 0x28812, offset: 0x28812, size: 0x8, addend: 0x0, symName: __ZNSt3__119__hash_map_iteratorINS_15__hash_iteratorIPNS_11__hash_nodeINS_17__hash_value_typeIiNS_15__list_iteratorINS_4pairIiNS_12basic_stringIcNS_11char_traitsIcEENS_9allocatorIcEEEEEEPvEEEESD_EEEEEC1B7v160006ESI_, symObjAddr: 0x1016C, symBinAddr: 0x10001404C, symSize: 0x34 }
  - { offsetInCU: 0x28849, offset: 0x28849, size: 0x8, addend: 0x0, symName: __ZNSt3__112__hash_tableINS_17__hash_value_typeIiNS_15__list_iteratorINS_4pairIiNS_12basic_stringIcNS_11char_traitsIcEENS_9allocatorIcEEEEEEPvEEEENS_22__unordered_map_hasherIiSD_NS_4hashIiEENS_8equal_toIiEELb1EEENS_21__unordered_map_equalIiSD_SI_SG_Lb1EEENS7_ISD_EEE13hash_functionB7v160006Ev, symObjAddr: 0x101A0, symBinAddr: 0x100014080, symSize: 0x28 }
  - { offsetInCU: 0x2886D, offset: 0x2886D, size: 0x8, addend: 0x0, symName: __ZNKSt3__122__unordered_map_hasherIiNS_17__hash_value_typeIiNS_15__list_iteratorINS_4pairIiNS_12basic_stringIcNS_11char_traitsIcEENS_9allocatorIcEEEEEEPvEEEENS_4hashIiEENS_8equal_toIiEELb1EEclB7v160006ERKi, symObjAddr: 0x101C8, symBinAddr: 0x1000140A8, symSize: 0x30 }
  - { offsetInCU: 0x288A0, offset: 0x288A0, size: 0x8, addend: 0x0, symName: __ZNKSt3__112__hash_tableINS_17__hash_value_typeIiNS_15__list_iteratorINS_4pairIiNS_12basic_stringIcNS_11char_traitsIcEENS_9allocatorIcEEEEEEPvEEEENS_22__unordered_map_hasherIiSD_NS_4hashIiEENS_8equal_toIiEELb1EEENS_21__unordered_map_equalIiSD_SI_SG_Lb1EEENS7_ISD_EEE12bucket_countB7v160006Ev, symObjAddr: 0x101F8, symBinAddr: 0x1000140D8, symSize: 0x28 }
  - { offsetInCU: 0x288C4, offset: 0x288C4, size: 0x8, addend: 0x0, symName: __ZNKSt3__110unique_ptrIA_PNS_16__hash_node_baseIPNS_11__hash_nodeINS_17__hash_value_typeIiNS_15__list_iteratorINS_4pairIiNS_12basic_stringIcNS_11char_traitsIcEENS_9allocatorIcEEEEEEPvEEEESD_EEEENS_25__bucket_list_deallocatorINS9_ISJ_EEEEEixB7v160006Em, symObjAddr: 0x10220, symBinAddr: 0x100014100, symSize: 0x34 }
  - { offsetInCU: 0x288F8, offset: 0x288F8, size: 0x8, addend: 0x0, symName: __ZNKSt3__116__hash_node_baseIPNS_11__hash_nodeINS_17__hash_value_typeIiNS_15__list_iteratorINS_4pairIiNS_12basic_stringIcNS_11char_traitsIcEENS_9allocatorIcEEEEEEPvEEEESC_EEE6__hashB7v160006Ev, symObjAddr: 0x10254, symBinAddr: 0x100014134, symSize: 0x18 }
  - { offsetInCU: 0x2891C, offset: 0x2891C, size: 0x8, addend: 0x0, symName: __ZNSt3__112__hash_tableINS_17__hash_value_typeIiNS_15__list_iteratorINS_4pairIiNS_12basic_stringIcNS_11char_traitsIcEENS_9allocatorIcEEEEEEPvEEEENS_22__unordered_map_hasherIiSD_NS_4hashIiEENS_8equal_toIiEELb1EEENS_21__unordered_map_equalIiSD_SI_SG_Lb1EEENS7_ISD_EEE6key_eqB7v160006Ev, symObjAddr: 0x1026C, symBinAddr: 0x10001414C, symSize: 0x28 }
  - { offsetInCU: 0x28940, offset: 0x28940, size: 0x8, addend: 0x0, symName: __ZNKSt3__121__unordered_map_equalIiNS_17__hash_value_typeIiNS_15__list_iteratorINS_4pairIiNS_12basic_stringIcNS_11char_traitsIcEENS_9allocatorIcEEEEEEPvEEEENS_8equal_toIiEENS_4hashIiEELb1EEclB7v160006ERKSD_RKi, symObjAddr: 0x10294, symBinAddr: 0x100014174, symSize: 0x48 }
  - { offsetInCU: 0x28983, offset: 0x28983, size: 0x8, addend: 0x0, symName: __ZNSt3__115__hash_iteratorIPNS_11__hash_nodeINS_17__hash_value_typeIiNS_15__list_iteratorINS_4pairIiNS_12basic_stringIcNS_11char_traitsIcEENS_9allocatorIcEEEEEEPvEEEESC_EEEC1B7v160006EPNS_16__hash_node_baseISG_EEPKv, symObjAddr: 0x102DC, symBinAddr: 0x1000141BC, symSize: 0x3C }
  - { offsetInCU: 0x289CA, offset: 0x289CA, size: 0x8, addend: 0x0, symName: __ZNSt3__112__hash_tableINS_17__hash_value_typeIiNS_15__list_iteratorINS_4pairIiNS_12basic_stringIcNS_11char_traitsIcEENS_9allocatorIcEEEEEEPvEEEENS_22__unordered_map_hasherIiSD_NS_4hashIiEENS_8equal_toIiEELb1EEENS_21__unordered_map_equalIiSD_SI_SG_Lb1EEENS7_ISD_EEE3endEv, symObjAddr: 0x10318, symBinAddr: 0x1000141F8, symSize: 0x30 }
  - { offsetInCU: 0x289F0, offset: 0x289F0, size: 0x8, addend: 0x0, symName: __ZNSt3__117__compressed_pairImNS_22__unordered_map_hasherIiNS_17__hash_value_typeIiNS_15__list_iteratorINS_4pairIiNS_12basic_stringIcNS_11char_traitsIcEENS_9allocatorIcEEEEEEPvEEEENS_4hashIiEENS_8equal_toIiEELb1EEEE6secondB7v160006Ev, symObjAddr: 0x10348, symBinAddr: 0x100014228, symSize: 0x24 }
  - { offsetInCU: 0x28A15, offset: 0x28A15, size: 0x8, addend: 0x0, symName: __ZNSt3__122__compressed_pair_elemINS_22__unordered_map_hasherIiNS_17__hash_value_typeIiNS_15__list_iteratorINS_4pairIiNS_12basic_stringIcNS_11char_traitsIcEENS_9allocatorIcEEEEEEPvEEEENS_4hashIiEENS_8equal_toIiEELb1EEELi1ELb1EE5__getB7v160006Ev, symObjAddr: 0x1036C, symBinAddr: 0x10001424C, symSize: 0x14 }
  - { offsetInCU: 0x28A3A, offset: 0x28A3A, size: 0x8, addend: 0x0, symName: __ZNKSt3__14hashIiEclB7v160006Ei, symObjAddr: 0x10380, symBinAddr: 0x100014260, symSize: 0x18 }
  - { offsetInCU: 0x28A6D, offset: 0x28A6D, size: 0x8, addend: 0x0, symName: __ZNKSt3__110unique_ptrIA_PNS_16__hash_node_baseIPNS_11__hash_nodeINS_17__hash_value_typeIiNS_15__list_iteratorINS_4pairIiNS_12basic_stringIcNS_11char_traitsIcEENS_9allocatorIcEEEEEEPvEEEESD_EEEENS_25__bucket_list_deallocatorINS9_ISJ_EEEEE11get_deleterB7v160006Ev, symObjAddr: 0x10398, symBinAddr: 0x100014278, symSize: 0x24 }
  - { offsetInCU: 0x28A91, offset: 0x28A91, size: 0x8, addend: 0x0, symName: __ZNKSt3__125__bucket_list_deallocatorINS_9allocatorIPNS_16__hash_node_baseIPNS_11__hash_nodeINS_17__hash_value_typeIiNS_15__list_iteratorINS_4pairIiNS_12basic_stringIcNS_11char_traitsIcEENS1_IcEEEEEEPvEEEESD_EEEEEEE4sizeB7v160006Ev, symObjAddr: 0x103BC, symBinAddr: 0x10001429C, symSize: 0x28 }
  - { offsetInCU: 0x28AB5, offset: 0x28AB5, size: 0x8, addend: 0x0, symName: __ZNKSt3__117__compressed_pairIPPNS_16__hash_node_baseIPNS_11__hash_nodeINS_17__hash_value_typeIiNS_15__list_iteratorINS_4pairIiNS_12basic_stringIcNS_11char_traitsIcEENS_9allocatorIcEEEEEEPvEEEESD_EEEENS_25__bucket_list_deallocatorINS9_ISJ_EEEEE6secondB7v160006Ev, symObjAddr: 0x103E4, symBinAddr: 0x1000142C4, symSize: 0x28 }
  - { offsetInCU: 0x28ADA, offset: 0x28ADA, size: 0x8, addend: 0x0, symName: __ZNKSt3__122__compressed_pair_elemINS_25__bucket_list_deallocatorINS_9allocatorIPNS_16__hash_node_baseIPNS_11__hash_nodeINS_17__hash_value_typeIiNS_15__list_iteratorINS_4pairIiNS_12basic_stringIcNS_11char_traitsIcEENS2_IcEEEEEEPvEEEESE_EEEEEEEELi1ELb0EE5__getB7v160006Ev, symObjAddr: 0x1040C, symBinAddr: 0x1000142EC, symSize: 0x14 }
  - { offsetInCU: 0x28AFE, offset: 0x28AFE, size: 0x8, addend: 0x0, symName: __ZNKSt3__117__compressed_pairImNS_9allocatorIPNS_16__hash_node_baseIPNS_11__hash_nodeINS_17__hash_value_typeIiNS_15__list_iteratorINS_4pairIiNS_12basic_stringIcNS_11char_traitsIcEENS1_IcEEEEEEPvEEEESD_EEEEEEE5firstB7v160006Ev, symObjAddr: 0x10420, symBinAddr: 0x100014300, symSize: 0x24 }
  - { offsetInCU: 0x28B22, offset: 0x28B22, size: 0x8, addend: 0x0, symName: __ZNKSt3__117__compressed_pairIPPNS_16__hash_node_baseIPNS_11__hash_nodeINS_17__hash_value_typeIiNS_15__list_iteratorINS_4pairIiNS_12basic_stringIcNS_11char_traitsIcEENS_9allocatorIcEEEEEEPvEEEESD_EEEENS_25__bucket_list_deallocatorINS9_ISJ_EEEEE5firstB7v160006Ev, symObjAddr: 0x10444, symBinAddr: 0x100014324, symSize: 0x24 }
  - { offsetInCU: 0x28B47, offset: 0x28B47, size: 0x8, addend: 0x0, symName: __ZNKSt3__122__compressed_pair_elemIPPNS_16__hash_node_baseIPNS_11__hash_nodeINS_17__hash_value_typeIiNS_15__list_iteratorINS_4pairIiNS_12basic_stringIcNS_11char_traitsIcEENS_9allocatorIcEEEEEEPvEEEESD_EEEELi0ELb0EE5__getB7v160006Ev, symObjAddr: 0x10468, symBinAddr: 0x100014348, symSize: 0x14 }
  - { offsetInCU: 0x28B6B, offset: 0x28B6B, size: 0x8, addend: 0x0, symName: __ZNSt3__117__compressed_pairIfNS_21__unordered_map_equalIiNS_17__hash_value_typeIiNS_15__list_iteratorINS_4pairIiNS_12basic_stringIcNS_11char_traitsIcEENS_9allocatorIcEEEEEEPvEEEENS_8equal_toIiEENS_4hashIiEELb1EEEE6secondB7v160006Ev, symObjAddr: 0x1047C, symBinAddr: 0x10001435C, symSize: 0x24 }
  - { offsetInCU: 0x28B90, offset: 0x28B90, size: 0x8, addend: 0x0, symName: __ZNSt3__122__compressed_pair_elemINS_21__unordered_map_equalIiNS_17__hash_value_typeIiNS_15__list_iteratorINS_4pairIiNS_12basic_stringIcNS_11char_traitsIcEENS_9allocatorIcEEEEEEPvEEEENS_8equal_toIiEENS_4hashIiEELb1EEELi1ELb1EE5__getB7v160006Ev, symObjAddr: 0x104A0, symBinAddr: 0x100014380, symSize: 0x14 }
  - { offsetInCU: 0x28BB5, offset: 0x28BB5, size: 0x8, addend: 0x0, symName: __ZNKSt3__18equal_toIiEclB7v160006ERKiS3_, symObjAddr: 0x104B4, symBinAddr: 0x100014394, symSize: 0x34 }
  - { offsetInCU: 0x28BF7, offset: 0x28BF7, size: 0x8, addend: 0x0, symName: __ZNKSt3__117__hash_value_typeIiNS_15__list_iteratorINS_4pairIiNS_12basic_stringIcNS_11char_traitsIcEENS_9allocatorIcEEEEEEPvEEE11__get_valueB7v160006Ev, symObjAddr: 0x104E8, symBinAddr: 0x1000143C8, symSize: 0x24 }
  - { offsetInCU: 0x28C1C, offset: 0x28C1C, size: 0x8, addend: 0x0, symName: __ZNSt3__115__hash_iteratorIPNS_11__hash_nodeINS_17__hash_value_typeIiNS_15__list_iteratorINS_4pairIiNS_12basic_stringIcNS_11char_traitsIcEENS_9allocatorIcEEEEEEPvEEEESC_EEEC2B7v160006EPNS_16__hash_node_baseISG_EEPKv, symObjAddr: 0x10544, symBinAddr: 0x100014424, symSize: 0x24 }
  - { offsetInCU: 0x28C63, offset: 0x28C63, size: 0x8, addend: 0x0, symName: __ZNSt3__119__hash_map_iteratorINS_15__hash_iteratorIPNS_11__hash_nodeINS_17__hash_value_typeIiNS_15__list_iteratorINS_4pairIiNS_12basic_stringIcNS_11char_traitsIcEENS_9allocatorIcEEEEEEPvEEEESD_EEEEEC2B7v160006ESI_, symObjAddr: 0x10568, symBinAddr: 0x100014448, symSize: 0x20 }
  - { offsetInCU: 0x28C9A, offset: 0x28C9A, size: 0x8, addend: 0x0, symName: __ZNKSt3__112__hash_tableINS_17__hash_value_typeIiNS_15__list_iteratorINS_4pairIiNS_12basic_stringIcNS_11char_traitsIcEENS_9allocatorIcEEEEEEPvEEEENS_22__unordered_map_hasherIiSD_NS_4hashIiEENS_8equal_toIiEELb1EEENS_21__unordered_map_equalIiSD_SI_SG_Lb1EEENS7_ISD_EEE4sizeB7v160006Ev, symObjAddr: 0x105B8, symBinAddr: 0x100014498, symSize: 0x2C }
  - { offsetInCU: 0x28CBE, offset: 0x28CBE, size: 0x8, addend: 0x0, symName: __ZNKSt3__117__compressed_pairImNS_22__unordered_map_hasherIiNS_17__hash_value_typeIiNS_15__list_iteratorINS_4pairIiNS_12basic_stringIcNS_11char_traitsIcEENS_9allocatorIcEEEEEEPvEEEENS_4hashIiEENS_8equal_toIiEELb1EEEE5firstB7v160006Ev, symObjAddr: 0x105E4, symBinAddr: 0x1000144C4, symSize: 0x24 }
  - { offsetInCU: 0x28CE3, offset: 0x28CE3, size: 0x8, addend: 0x0, symName: __ZNSt3__112__hash_tableINS_17__hash_value_typeIiNS_15__list_iteratorINS_4pairIiNS_12basic_stringIcNS_11char_traitsIcEENS_9allocatorIcEEEEEEPvEEEENS_22__unordered_map_hasherIiSD_NS_4hashIiEENS_8equal_toIiEELb1EEENS_21__unordered_map_equalIiSD_SI_SG_Lb1EEENS7_ISD_EEE14__erase_uniqueIiEEmRKT_, symObjAddr: 0x10608, symBinAddr: 0x1000144E8, symSize: 0x98 }
  - { offsetInCU: 0x28D31, offset: 0x28D31, size: 0x8, addend: 0x0, symName: __ZNSt3__112__hash_tableINS_17__hash_value_typeIiNS_15__list_iteratorINS_4pairIiNS_12basic_stringIcNS_11char_traitsIcEENS_9allocatorIcEEEEEEPvEEEENS_22__unordered_map_hasherIiSD_NS_4hashIiEENS_8equal_toIiEELb1EEENS_21__unordered_map_equalIiSD_SI_SG_Lb1EEENS7_ISD_EEE5eraseENS_21__hash_const_iteratorIPNS_11__hash_nodeISD_SB_EEEE, symObjAddr: 0x106A0, symBinAddr: 0x100014580, symSize: 0x70 }
  - { offsetInCU: 0x28D85, offset: 0x28D85, size: 0x8, addend: 0x0, symName: __ZNSt3__121__hash_const_iteratorIPNS_11__hash_nodeINS_17__hash_value_typeIiNS_15__list_iteratorINS_4pairIiNS_12basic_stringIcNS_11char_traitsIcEENS_9allocatorIcEEEEEEPvEEEESC_EEEC1B7v160006ERKNS_15__hash_iteratorISG_EE, symObjAddr: 0x10710, symBinAddr: 0x1000145F0, symSize: 0x34 }
  - { offsetInCU: 0x28DBD, offset: 0x28DBD, size: 0x8, addend: 0x0, symName: __ZNSt3__115__hash_iteratorIPNS_11__hash_nodeINS_17__hash_value_typeIiNS_15__list_iteratorINS_4pairIiNS_12basic_stringIcNS_11char_traitsIcEENS_9allocatorIcEEEEEEPvEEEESC_EEEppB7v160006Ev, symObjAddr: 0x10744, symBinAddr: 0x100014624, symSize: 0x20 }
  - { offsetInCU: 0x28DE2, offset: 0x28DE2, size: 0x8, addend: 0x0, symName: __ZNSt3__112__hash_tableINS_17__hash_value_typeIiNS_15__list_iteratorINS_4pairIiNS_12basic_stringIcNS_11char_traitsIcEENS_9allocatorIcEEEEEEPvEEEENS_22__unordered_map_hasherIiSD_NS_4hashIiEENS_8equal_toIiEELb1EEENS_21__unordered_map_equalIiSD_SI_SG_Lb1EEENS7_ISD_EEE6removeENS_21__hash_const_iteratorIPNS_11__hash_nodeISD_SB_EEEE, symObjAddr: 0x10764, symBinAddr: 0x100014644, symSize: 0x220 }
  - { offsetInCU: 0x28E72, offset: 0x28E72, size: 0x8, addend: 0x0, symName: __ZNSt3__110unique_ptrINS_11__hash_nodeINS_17__hash_value_typeIiNS_15__list_iteratorINS_4pairIiNS_12basic_stringIcNS_11char_traitsIcEENS_9allocatorIcEEEEEEPvEEEESC_EENS_22__hash_node_destructorINS8_ISF_EEEEED1B7v160006Ev, symObjAddr: 0x10984, symBinAddr: 0x100014864, symSize: 0x2C }
  - { offsetInCU: 0x28E9A, offset: 0x28E9A, size: 0x8, addend: 0x0, symName: __ZNSt3__116__hash_node_baseIPNS_11__hash_nodeINS_17__hash_value_typeIiNS_15__list_iteratorINS_4pairIiNS_12basic_stringIcNS_11char_traitsIcEENS_9allocatorIcEEEEEEPvEEEESC_EEE5__ptrB7v160006Ev, symObjAddr: 0x109B0, symBinAddr: 0x100014890, symSize: 0x24 }
  - { offsetInCU: 0x28EBE, offset: 0x28EBE, size: 0x8, addend: 0x0, symName: __ZNSt3__112__hash_tableINS_17__hash_value_typeIiNS_15__list_iteratorINS_4pairIiNS_12basic_stringIcNS_11char_traitsIcEENS_9allocatorIcEEEEEEPvEEEENS_22__unordered_map_hasherIiSD_NS_4hashIiEENS_8equal_toIiEELb1EEENS_21__unordered_map_equalIiSD_SI_SG_Lb1EEENS7_ISD_EEE4sizeB7v160006Ev, symObjAddr: 0x109D4, symBinAddr: 0x1000148B4, symSize: 0x28 }
  - { offsetInCU: 0x28EE3, offset: 0x28EE3, size: 0x8, addend: 0x0, symName: __ZNSt3__122__hash_node_destructorINS_9allocatorINS_11__hash_nodeINS_17__hash_value_typeIiNS_15__list_iteratorINS_4pairIiNS_12basic_stringIcNS_11char_traitsIcEENS1_IcEEEEEEPvEEEESC_EEEEEC1B7v160006ERSG_b, symObjAddr: 0x109FC, symBinAddr: 0x1000148DC, symSize: 0x48 }
  - { offsetInCU: 0x28F2F, offset: 0x28F2F, size: 0x8, addend: 0x0, symName: __ZNSt3__110unique_ptrINS_11__hash_nodeINS_17__hash_value_typeIiNS_15__list_iteratorINS_4pairIiNS_12basic_stringIcNS_11char_traitsIcEENS_9allocatorIcEEEEEEPvEEEESC_EENS_22__hash_node_destructorINS8_ISF_EEEEEC1B7v160006ILb1EvEEPSF_NS_16__dependent_typeINS_27__unique_ptr_deleter_sfinaeISI_EEXT_EE20__good_rval_ref_typeE, symObjAddr: 0x10A44, symBinAddr: 0x100014924, symSize: 0x3C }
  - { offsetInCU: 0x28F7E, offset: 0x28F7E, size: 0x8, addend: 0x0, symName: __ZNSt3__117__compressed_pairImNS_22__unordered_map_hasherIiNS_17__hash_value_typeIiNS_15__list_iteratorINS_4pairIiNS_12basic_stringIcNS_11char_traitsIcEENS_9allocatorIcEEEEEEPvEEEENS_4hashIiEENS_8equal_toIiEELb1EEEE5firstB7v160006Ev, symObjAddr: 0x10A80, symBinAddr: 0x100014960, symSize: 0x24 }
  - { offsetInCU: 0x28FA3, offset: 0x28FA3, size: 0x8, addend: 0x0, symName: __ZNSt3__122__hash_node_destructorINS_9allocatorINS_11__hash_nodeINS_17__hash_value_typeIiNS_15__list_iteratorINS_4pairIiNS_12basic_stringIcNS_11char_traitsIcEENS1_IcEEEEEEPvEEEESC_EEEEEC2B7v160006ERSG_b, symObjAddr: 0x10AA4, symBinAddr: 0x100014984, symSize: 0x38 }
  - { offsetInCU: 0x28FEA, offset: 0x28FEA, size: 0x8, addend: 0x0, symName: __ZNSt3__110unique_ptrINS_11__hash_nodeINS_17__hash_value_typeIiNS_15__list_iteratorINS_4pairIiNS_12basic_stringIcNS_11char_traitsIcEENS_9allocatorIcEEEEEEPvEEEESC_EENS_22__hash_node_destructorINS8_ISF_EEEEEC2B7v160006ILb1EvEEPSF_NS_16__dependent_typeINS_27__unique_ptr_deleter_sfinaeISI_EEXT_EE20__good_rval_ref_typeE, symObjAddr: 0x10ADC, symBinAddr: 0x1000149BC, symSize: 0x48 }
  - { offsetInCU: 0x2903A, offset: 0x2903A, size: 0x8, addend: 0x0, symName: __ZNSt3__117__compressed_pairIPNS_11__hash_nodeINS_17__hash_value_typeIiNS_15__list_iteratorINS_4pairIiNS_12basic_stringIcNS_11char_traitsIcEENS_9allocatorIcEEEEEEPvEEEESC_EENS_22__hash_node_destructorINS8_ISF_EEEEEC1B7v160006IRSG_SJ_EEOT_OT0_, symObjAddr: 0x10B24, symBinAddr: 0x100014A04, symSize: 0x3C }
  - { offsetInCU: 0x29091, offset: 0x29091, size: 0x8, addend: 0x0, symName: __ZNSt3__117__compressed_pairIPNS_11__hash_nodeINS_17__hash_value_typeIiNS_15__list_iteratorINS_4pairIiNS_12basic_stringIcNS_11char_traitsIcEENS_9allocatorIcEEEEEEPvEEEESC_EENS_22__hash_node_destructorINS8_ISF_EEEEEC2B7v160006IRSG_SJ_EEOT_OT0_, symObjAddr: 0x10B60, symBinAddr: 0x100014A40, symSize: 0x48 }
  - { offsetInCU: 0x290E8, offset: 0x290E8, size: 0x8, addend: 0x0, symName: __ZNSt3__122__compressed_pair_elemIPNS_11__hash_nodeINS_17__hash_value_typeIiNS_15__list_iteratorINS_4pairIiNS_12basic_stringIcNS_11char_traitsIcEENS_9allocatorIcEEEEEEPvEEEESC_EELi0ELb0EEC2B7v160006IRSG_vEEOT_, symObjAddr: 0x10BA8, symBinAddr: 0x100014A88, symSize: 0x24 }
  - { offsetInCU: 0x29129, offset: 0x29129, size: 0x8, addend: 0x0, symName: __ZNSt3__122__compressed_pair_elemINS_22__hash_node_destructorINS_9allocatorINS_11__hash_nodeINS_17__hash_value_typeIiNS_15__list_iteratorINS_4pairIiNS_12basic_stringIcNS_11char_traitsIcEENS2_IcEEEEEEPvEEEESD_EEEEEELi1ELb0EEC2B7v160006ISI_vEEOT_, symObjAddr: 0x10BCC, symBinAddr: 0x100014AAC, symSize: 0x24 }
  - { offsetInCU: 0x2916A, offset: 0x2916A, size: 0x8, addend: 0x0, symName: __ZNSt3__110unique_ptrINS_11__hash_nodeINS_17__hash_value_typeIiNS_15__list_iteratorINS_4pairIiNS_12basic_stringIcNS_11char_traitsIcEENS_9allocatorIcEEEEEEPvEEEESC_EENS_22__hash_node_destructorINS8_ISF_EEEEED2B7v160006Ev, symObjAddr: 0x10BF0, symBinAddr: 0x100014AD0, symSize: 0x30 }
  - { offsetInCU: 0x29192, offset: 0x29192, size: 0x8, addend: 0x0, symName: __ZNSt3__110unique_ptrINS_11__hash_nodeINS_17__hash_value_typeIiNS_15__list_iteratorINS_4pairIiNS_12basic_stringIcNS_11char_traitsIcEENS_9allocatorIcEEEEEEPvEEEESC_EENS_22__hash_node_destructorINS8_ISF_EEEEE5resetB7v160006EPSF_, symObjAddr: 0x10C20, symBinAddr: 0x100014B00, symSize: 0x78 }
  - { offsetInCU: 0x291D4, offset: 0x291D4, size: 0x8, addend: 0x0, symName: __ZNSt3__117__compressed_pairIPNS_11__hash_nodeINS_17__hash_value_typeIiNS_15__list_iteratorINS_4pairIiNS_12basic_stringIcNS_11char_traitsIcEENS_9allocatorIcEEEEEEPvEEEESC_EENS_22__hash_node_destructorINS8_ISF_EEEEE5firstB7v160006Ev, symObjAddr: 0x10C98, symBinAddr: 0x100014B78, symSize: 0x24 }
  - { offsetInCU: 0x291F8, offset: 0x291F8, size: 0x8, addend: 0x0, symName: __ZNSt3__117__compressed_pairIPNS_11__hash_nodeINS_17__hash_value_typeIiNS_15__list_iteratorINS_4pairIiNS_12basic_stringIcNS_11char_traitsIcEENS_9allocatorIcEEEEEEPvEEEESC_EENS_22__hash_node_destructorINS8_ISF_EEEEE6secondB7v160006Ev, symObjAddr: 0x10CBC, symBinAddr: 0x100014B9C, symSize: 0x28 }
  - { offsetInCU: 0x2921C, offset: 0x2921C, size: 0x8, addend: 0x0, symName: __ZNSt3__122__hash_node_destructorINS_9allocatorINS_11__hash_nodeINS_17__hash_value_typeIiNS_15__list_iteratorINS_4pairIiNS_12basic_stringIcNS_11char_traitsIcEENS1_IcEEEEEEPvEEEESC_EEEEEclB7v160006EPSF_, symObjAddr: 0x10CE4, symBinAddr: 0x100014BC4, symSize: 0x98 }
  - { offsetInCU: 0x29250, offset: 0x29250, size: 0x8, addend: 0x0, symName: __ZNSt3__122__compressed_pair_elemIPNS_11__hash_nodeINS_17__hash_value_typeIiNS_15__list_iteratorINS_4pairIiNS_12basic_stringIcNS_11char_traitsIcEENS_9allocatorIcEEEEEEPvEEEESC_EELi0ELb0EE5__getB7v160006Ev, symObjAddr: 0x10D7C, symBinAddr: 0x100014C5C, symSize: 0x14 }
  - { offsetInCU: 0x29275, offset: 0x29275, size: 0x8, addend: 0x0, symName: __ZNSt3__122__compressed_pair_elemINS_22__hash_node_destructorINS_9allocatorINS_11__hash_nodeINS_17__hash_value_typeIiNS_15__list_iteratorINS_4pairIiNS_12basic_stringIcNS_11char_traitsIcEENS2_IcEEEEEEPvEEEESD_EEEEEELi1ELb0EE5__getB7v160006Ev, symObjAddr: 0x10D90, symBinAddr: 0x100014C70, symSize: 0x14 }
  - { offsetInCU: 0x2929A, offset: 0x2929A, size: 0x8, addend: 0x0, symName: __ZNSt3__121__hash_const_iteratorIPNS_11__hash_nodeINS_17__hash_value_typeIiNS_15__list_iteratorINS_4pairIiNS_12basic_stringIcNS_11char_traitsIcEENS_9allocatorIcEEEEEEPvEEEESC_EEEC2B7v160006ERKNS_15__hash_iteratorISG_EE, symObjAddr: 0x10DA4, symBinAddr: 0x100014C84, symSize: 0x24 }
  - { offsetInCU: 0x292D2, offset: 0x292D2, size: 0x8, addend: 0x0, symName: __ZNSt3__115__list_iteratorINS_4pairIiNS_12basic_stringIcNS_11char_traitsIcEENS_9allocatorIcEEEEEEPvEC1B7v160006EPNS_16__list_node_baseIS8_S9_EEPKv, symObjAddr: 0x10DC8, symBinAddr: 0x100014CA8, symSize: 0x3C }
  - { offsetInCU: 0x29319, offset: 0x29319, size: 0x8, addend: 0x0, symName: __ZNSt3__115__list_iteratorINS_4pairIiNS_12basic_stringIcNS_11char_traitsIcEENS_9allocatorIcEEEEEEPvEC2B7v160006EPNS_16__list_node_baseIS8_S9_EEPKv, symObjAddr: 0x10E04, symBinAddr: 0x100014CE4, symSize: 0x24 }
  - { offsetInCU: 0x2935F, offset: 0x2935F, size: 0x8, addend: 0x0, symName: __ZNSt3__110__list_impINS_4pairIiNS_12basic_stringIcNS_11char_traitsIcEENS_9allocatorIcEEEEEENS5_IS8_EEE5beginB7v160006Ev, symObjAddr: 0x10E28, symBinAddr: 0x100014D08, symSize: 0x30 }
  - { offsetInCU: 0x29384, offset: 0x29384, size: 0x8, addend: 0x0, symName: __ZNSt3__121__list_const_iteratorINS_4pairIiNS_12basic_stringIcNS_11char_traitsIcEENS_9allocatorIcEEEEEEPvEC2B7v160006ERKNS_15__list_iteratorIS8_S9_EE, symObjAddr: 0x10E58, symBinAddr: 0x100014D38, symSize: 0x24 }
  - { offsetInCU: 0x293BB, offset: 0x293BB, size: 0x8, addend: 0x0, symName: __ZNSt3__14listINS_4pairIiNS_12basic_stringIcNS_11char_traitsIcEENS_9allocatorIcEEEEEENS5_IS8_EEE15__allocate_nodeB7v160006ERNS5_INS_11__list_nodeIS8_PvEEEE, symObjAddr: 0x10E7C, symBinAddr: 0x100014D5C, symSize: 0x70 }
  - { offsetInCU: 0x293FE, offset: 0x293FE, size: 0x8, addend: 0x0, symName: __ZNSt3__116allocator_traitsINS_9allocatorINS_11__list_nodeINS_4pairIiNS_12basic_stringIcNS_11char_traitsIcEENS1_IcEEEEEEPvEEEEE9constructB7v160006IS9_JS9_EvvEEvRSC_PT_DpOT0_, symObjAddr: 0x10EEC, symBinAddr: 0x100014DCC, symSize: 0x30 }
  - { offsetInCU: 0x29452, offset: 0x29452, size: 0x8, addend: 0x0, symName: __ZNKSt3__110unique_ptrINS_11__list_nodeINS_4pairIiNS_12basic_stringIcNS_11char_traitsIcEENS_9allocatorIcEEEEEEPvEENS_22__allocator_destructorINS6_ISB_EEEEEptB7v160006Ev, symObjAddr: 0x10F1C, symBinAddr: 0x100014DFC, symSize: 0x28 }
  - { offsetInCU: 0x29477, offset: 0x29477, size: 0x8, addend: 0x0, symName: __ZNSt3__14listINS_4pairIiNS_12basic_stringIcNS_11char_traitsIcEENS_9allocatorIcEEEEEENS5_IS8_EEE20__link_nodes_at_backEPNS_16__list_node_baseIS8_PvEESE_, symObjAddr: 0x10F44, symBinAddr: 0x100014E24, symSize: 0x60 }
  - { offsetInCU: 0x294BB, offset: 0x294BB, size: 0x8, addend: 0x0, symName: __ZNKSt3__110unique_ptrINS_11__list_nodeINS_4pairIiNS_12basic_stringIcNS_11char_traitsIcEENS_9allocatorIcEEEEEEPvEENS_22__allocator_destructorINS6_ISB_EEEEE3getB7v160006Ev, symObjAddr: 0x10FA4, symBinAddr: 0x100014E84, symSize: 0x28 }
  - { offsetInCU: 0x294DF, offset: 0x294DF, size: 0x8, addend: 0x0, symName: __ZNSt3__111__list_nodeINS_4pairIiNS_12basic_stringIcNS_11char_traitsIcEENS_9allocatorIcEEEEEEPvE9__as_linkB7v160006Ev, symObjAddr: 0x10FCC, symBinAddr: 0x100014EAC, symSize: 0x24 }
  - { offsetInCU: 0x29503, offset: 0x29503, size: 0x8, addend: 0x0, symName: __ZNSt3__110unique_ptrINS_11__list_nodeINS_4pairIiNS_12basic_stringIcNS_11char_traitsIcEENS_9allocatorIcEEEEEEPvEENS_22__allocator_destructorINS6_ISB_EEEEE7releaseB7v160006Ev, symObjAddr: 0x10FF0, symBinAddr: 0x100014ED0, symSize: 0x44 }
  - { offsetInCU: 0x29537, offset: 0x29537, size: 0x8, addend: 0x0, symName: __ZNSt3__110unique_ptrINS_11__list_nodeINS_4pairIiNS_12basic_stringIcNS_11char_traitsIcEENS_9allocatorIcEEEEEEPvEENS_22__allocator_destructorINS6_ISB_EEEEED1B7v160006Ev, symObjAddr: 0x11034, symBinAddr: 0x100014F14, symSize: 0x2C }
  - { offsetInCU: 0x29560, offset: 0x29560, size: 0x8, addend: 0x0, symName: __ZNSt3__116allocator_traitsINS_9allocatorINS_11__list_nodeINS_4pairIiNS_12basic_stringIcNS_11char_traitsIcEENS1_IcEEEEEEPvEEEEE8allocateB7v160006ERSC_m, symObjAddr: 0x11060, symBinAddr: 0x100014F40, symSize: 0x2C }
  - { offsetInCU: 0x29593, offset: 0x29593, size: 0x8, addend: 0x0, symName: __ZNSt3__122__allocator_destructorINS_9allocatorINS_11__list_nodeINS_4pairIiNS_12basic_stringIcNS_11char_traitsIcEENS1_IcEEEEEEPvEEEEEC1B7v160006ERSC_m, symObjAddr: 0x1108C, symBinAddr: 0x100014F6C, symSize: 0x3C }
  - { offsetInCU: 0x295DD, offset: 0x295DD, size: 0x8, addend: 0x0, symName: __ZNSt3__110unique_ptrINS_11__list_nodeINS_4pairIiNS_12basic_stringIcNS_11char_traitsIcEENS_9allocatorIcEEEEEEPvEENS_22__allocator_destructorINS6_ISB_EEEEEC1B7v160006ILb1EvEEPSB_NS_16__dependent_typeINS_27__unique_ptr_deleter_sfinaeISE_EEXT_EE20__good_rval_ref_typeE, symObjAddr: 0x110C8, symBinAddr: 0x100014FA8, symSize: 0x3C }
  - { offsetInCU: 0x2962C, offset: 0x2962C, size: 0x8, addend: 0x0, symName: __ZNSt3__19allocatorINS_11__list_nodeINS_4pairIiNS_12basic_stringIcNS_11char_traitsIcEENS0_IcEEEEEEPvEEE8allocateB7v160006Em, symObjAddr: 0x11104, symBinAddr: 0x100014FE4, symSize: 0x5C }
  - { offsetInCU: 0x29669, offset: 0x29669, size: 0x8, addend: 0x0, symName: __ZNSt3__116allocator_traitsINS_9allocatorINS_11__list_nodeINS_4pairIiNS_12basic_stringIcNS_11char_traitsIcEENS1_IcEEEEEEPvEEEEE8max_sizeB7v160006ISC_vvEEmRKSC_, symObjAddr: 0x11160, symBinAddr: 0x100015040, symSize: 0x28 }
  - { offsetInCU: 0x29695, offset: 0x29695, size: 0x8, addend: 0x0, symName: __ZNSt3__122__allocator_destructorINS_9allocatorINS_11__list_nodeINS_4pairIiNS_12basic_stringIcNS_11char_traitsIcEENS1_IcEEEEEEPvEEEEEC2B7v160006ERSC_m, symObjAddr: 0x11188, symBinAddr: 0x100015068, symSize: 0x2C }
  - { offsetInCU: 0x296DA, offset: 0x296DA, size: 0x8, addend: 0x0, symName: __ZNSt3__110unique_ptrINS_11__list_nodeINS_4pairIiNS_12basic_stringIcNS_11char_traitsIcEENS_9allocatorIcEEEEEEPvEENS_22__allocator_destructorINS6_ISB_EEEEEC2B7v160006ILb1EvEEPSB_NS_16__dependent_typeINS_27__unique_ptr_deleter_sfinaeISE_EEXT_EE20__good_rval_ref_typeE, symObjAddr: 0x111B4, symBinAddr: 0x100015094, symSize: 0x48 }
  - { offsetInCU: 0x2972A, offset: 0x2972A, size: 0x8, addend: 0x0, symName: __ZNSt3__117__compressed_pairIPNS_11__list_nodeINS_4pairIiNS_12basic_stringIcNS_11char_traitsIcEENS_9allocatorIcEEEEEEPvEENS_22__allocator_destructorINS6_ISB_EEEEEC1B7v160006IRSC_SF_EEOT_OT0_, symObjAddr: 0x111FC, symBinAddr: 0x1000150DC, symSize: 0x3C }
  - { offsetInCU: 0x29781, offset: 0x29781, size: 0x8, addend: 0x0, symName: __ZNSt3__117__compressed_pairIPNS_11__list_nodeINS_4pairIiNS_12basic_stringIcNS_11char_traitsIcEENS_9allocatorIcEEEEEEPvEENS_22__allocator_destructorINS6_ISB_EEEEEC2B7v160006IRSC_SF_EEOT_OT0_, symObjAddr: 0x11238, symBinAddr: 0x100015118, symSize: 0x48 }
  - { offsetInCU: 0x297D8, offset: 0x297D8, size: 0x8, addend: 0x0, symName: __ZNSt3__122__compressed_pair_elemIPNS_11__list_nodeINS_4pairIiNS_12basic_stringIcNS_11char_traitsIcEENS_9allocatorIcEEEEEEPvEELi0ELb0EEC2B7v160006IRSC_vEEOT_, symObjAddr: 0x11280, symBinAddr: 0x100015160, symSize: 0x24 }
  - { offsetInCU: 0x29819, offset: 0x29819, size: 0x8, addend: 0x0, symName: __ZNSt3__122__compressed_pair_elemINS_22__allocator_destructorINS_9allocatorINS_11__list_nodeINS_4pairIiNS_12basic_stringIcNS_11char_traitsIcEENS2_IcEEEEEEPvEEEEEELi1ELb0EEC2B7v160006ISE_vEEOT_, symObjAddr: 0x112A4, symBinAddr: 0x100015184, symSize: 0x24 }
  - { offsetInCU: 0x2985A, offset: 0x2985A, size: 0x8, addend: 0x0, symName: __ZNSt3__14pairIiNS_12basic_stringIcNS_11char_traitsIcEENS_9allocatorIcEEEEEC1EOS7_, symObjAddr: 0x11304, symBinAddr: 0x1000151E4, symSize: 0x34 }
  - { offsetInCU: 0x2988D, offset: 0x2988D, size: 0x8, addend: 0x0, symName: __ZNSt3__14pairIiNS_12basic_stringIcNS_11char_traitsIcEENS_9allocatorIcEEEEEC2EOS7_, symObjAddr: 0x11338, symBinAddr: 0x100015218, symSize: 0x48 }
  - { offsetInCU: 0x298BF, offset: 0x298BF, size: 0x8, addend: 0x0, symName: __ZNKSt3__117__compressed_pairIPNS_11__list_nodeINS_4pairIiNS_12basic_stringIcNS_11char_traitsIcEENS_9allocatorIcEEEEEEPvEENS_22__allocator_destructorINS6_ISB_EEEEE5firstB7v160006Ev, symObjAddr: 0x11380, symBinAddr: 0x100015260, symSize: 0x24 }
  - { offsetInCU: 0x298E4, offset: 0x298E4, size: 0x8, addend: 0x0, symName: __ZNKSt3__122__compressed_pair_elemIPNS_11__list_nodeINS_4pairIiNS_12basic_stringIcNS_11char_traitsIcEENS_9allocatorIcEEEEEEPvEELi0ELb0EE5__getB7v160006Ev, symObjAddr: 0x113A4, symBinAddr: 0x100015284, symSize: 0x14 }
  - { offsetInCU: 0x29908, offset: 0x29908, size: 0x8, addend: 0x0, symName: __ZNSt3__117__compressed_pairIPNS_11__list_nodeINS_4pairIiNS_12basic_stringIcNS_11char_traitsIcEENS_9allocatorIcEEEEEEPvEENS_22__allocator_destructorINS6_ISB_EEEEE5firstB7v160006Ev, symObjAddr: 0x113B8, symBinAddr: 0x100015298, symSize: 0x24 }
  - { offsetInCU: 0x2992D, offset: 0x2992D, size: 0x8, addend: 0x0, symName: __ZNSt3__122__compressed_pair_elemIPNS_11__list_nodeINS_4pairIiNS_12basic_stringIcNS_11char_traitsIcEENS_9allocatorIcEEEEEEPvEELi0ELb0EE5__getB7v160006Ev, symObjAddr: 0x113DC, symBinAddr: 0x1000152BC, symSize: 0x14 }
  - { offsetInCU: 0x29952, offset: 0x29952, size: 0x8, addend: 0x0, symName: __ZNSt3__110unique_ptrINS_11__list_nodeINS_4pairIiNS_12basic_stringIcNS_11char_traitsIcEENS_9allocatorIcEEEEEEPvEENS_22__allocator_destructorINS6_ISB_EEEEED2B7v160006Ev, symObjAddr: 0x113F0, symBinAddr: 0x1000152D0, symSize: 0x30 }
  - { offsetInCU: 0x2997A, offset: 0x2997A, size: 0x8, addend: 0x0, symName: __ZNSt3__110unique_ptrINS_11__list_nodeINS_4pairIiNS_12basic_stringIcNS_11char_traitsIcEENS_9allocatorIcEEEEEEPvEENS_22__allocator_destructorINS6_ISB_EEEEE5resetB7v160006EPSB_, symObjAddr: 0x11420, symBinAddr: 0x100015300, symSize: 0x78 }
  - { offsetInCU: 0x299BC, offset: 0x299BC, size: 0x8, addend: 0x0, symName: __ZNSt3__117__compressed_pairIPNS_11__list_nodeINS_4pairIiNS_12basic_stringIcNS_11char_traitsIcEENS_9allocatorIcEEEEEEPvEENS_22__allocator_destructorINS6_ISB_EEEEE6secondB7v160006Ev, symObjAddr: 0x11498, symBinAddr: 0x100015378, symSize: 0x28 }
  - { offsetInCU: 0x299E0, offset: 0x299E0, size: 0x8, addend: 0x0, symName: __ZNSt3__122__allocator_destructorINS_9allocatorINS_11__list_nodeINS_4pairIiNS_12basic_stringIcNS_11char_traitsIcEENS1_IcEEEEEEPvEEEEEclB7v160006EPSB_, symObjAddr: 0x114C0, symBinAddr: 0x1000153A0, symSize: 0x34 }
  - { offsetInCU: 0x29A13, offset: 0x29A13, size: 0x8, addend: 0x0, symName: __ZNSt3__122__compressed_pair_elemINS_22__allocator_destructorINS_9allocatorINS_11__list_nodeINS_4pairIiNS_12basic_stringIcNS_11char_traitsIcEENS2_IcEEEEEEPvEEEEEELi1ELb0EE5__getB7v160006Ev, symObjAddr: 0x114F4, symBinAddr: 0x1000153D4, symSize: 0x14 }
  - { offsetInCU: 0x29A38, offset: 0x29A38, size: 0x8, addend: 0x0, symName: __ZNSt3__14pairIiNS_12basic_stringIcNS_11char_traitsIcEENS_9allocatorIcEEEEEC2B7v160006ILb1ELPv0EEERKiRKS6_, symObjAddr: 0x11508, symBinAddr: 0x1000153E8, symSize: 0x48 }
  - { offsetInCU: 0x29A8D, offset: 0x29A8D, size: 0x8, addend: 0x0, symName: __ZNSt3__115__list_iteratorINS_4pairIiNS_12basic_stringIcNS_11char_traitsIcEENS_9allocatorIcEEEEEEPvEppB7v160006Ev, symObjAddr: 0x11644, symBinAddr: 0x100015524, symSize: 0x20 }
  - { offsetInCU: 0x29AB2, offset: 0x29AB2, size: 0x8, addend: 0x0, symName: __ZNSt3__115__list_iteratorINS_4pairIiNS_12basic_stringIcNS_11char_traitsIcEENS_9allocatorIcEEEEEEPvEmmB7v160006Ev, symObjAddr: 0x11664, symBinAddr: 0x100015544, symSize: 0x20 }
  - { offsetInCU: 0x29AD6, offset: 0x29AD6, size: 0x8, addend: 0x0, symName: __ZNSt3__110__list_impINS_4pairIiNS_12basic_stringIcNS_11char_traitsIcEENS_9allocatorIcEEEEEENS5_IS8_EEE3endB7v160006Ev, symObjAddr: 0x11684, symBinAddr: 0x100015564, symSize: 0x3C }
  - { offsetInCU: 0x29AFB, offset: 0x29AFB, size: 0x8, addend: 0x0, symName: __ZNSt3__112__hash_tableINS_17__hash_value_typeIiNS_15__list_iteratorINS_4pairIiNS_12basic_stringIcNS_11char_traitsIcEENS_9allocatorIcEEEEEEPvEEEENS_22__unordered_map_hasherIiSD_NS_4hashIiEENS_8equal_toIiEELb1EEENS_21__unordered_map_equalIiSD_SI_SG_Lb1EEENS7_ISD_EEE25__emplace_unique_key_argsIiJRKNS_21piecewise_construct_tENS_5tupleIJRKiEEENSS_IJEEEEEENS3_INS_15__hash_iteratorIPNS_11__hash_nodeISD_SB_EEEEbEERKT_DpOT0_, symObjAddr: 0x116C0, symBinAddr: 0x1000155A0, symSize: 0x498 }
  - { offsetInCU: 0x29C04, offset: 0x29C04, size: 0x8, addend: 0x0, symName: __ZNKSt3__115__hash_iteratorIPNS_11__hash_nodeINS_17__hash_value_typeIiNS_15__list_iteratorINS_4pairIiNS_12basic_stringIcNS_11char_traitsIcEENS_9allocatorIcEEEEEEPvEEEESC_EEEptB7v160006Ev, symObjAddr: 0x11B84, symBinAddr: 0x100015A64, symSize: 0x30 }
  - { offsetInCU: 0x29C29, offset: 0x29C29, size: 0x8, addend: 0x0, symName: __ZNSt3__112__hash_tableINS_17__hash_value_typeIiNS_15__list_iteratorINS_4pairIiNS_12basic_stringIcNS_11char_traitsIcEENS_9allocatorIcEEEEEEPvEEEENS_22__unordered_map_hasherIiSD_NS_4hashIiEENS_8equal_toIiEELb1EEENS_21__unordered_map_equalIiSD_SI_SG_Lb1EEENS7_ISD_EEE21__construct_node_hashIRKNS_21piecewise_construct_tEJNS_5tupleIJRKiEEENSS_IJEEEEEENS_10unique_ptrINS_11__hash_nodeISD_SB_EENS_22__hash_node_destructorINS7_ISZ_EEEEEEmOT_DpOT0_, symObjAddr: 0x11BB4, symBinAddr: 0x100015A94, symSize: 0x150 }
  - { offsetInCU: 0x29CC3, offset: 0x29CC3, size: 0x8, addend: 0x0, symName: __ZNSt3__112__hash_tableINS_17__hash_value_typeIiNS_15__list_iteratorINS_4pairIiNS_12basic_stringIcNS_11char_traitsIcEENS_9allocatorIcEEEEEEPvEEEENS_22__unordered_map_hasherIiSD_NS_4hashIiEENS_8equal_toIiEELb1EEENS_21__unordered_map_equalIiSD_SI_SG_Lb1EEENS7_ISD_EEE15max_load_factorB7v160006Ev, symObjAddr: 0x11D04, symBinAddr: 0x100015BE4, symSize: 0x28 }
  - { offsetInCU: 0x29CE7, offset: 0x29CE7, size: 0x8, addend: 0x0, symName: __ZNSt3__112__hash_tableINS_17__hash_value_typeIiNS_15__list_iteratorINS_4pairIiNS_12basic_stringIcNS_11char_traitsIcEENS_9allocatorIcEEEEEEPvEEEENS_22__unordered_map_hasherIiSD_NS_4hashIiEENS_8equal_toIiEELb1EEENS_21__unordered_map_equalIiSD_SI_SG_Lb1EEENS7_ISD_EEE15__rehash_uniqueB7v160006Em, symObjAddr: 0x11D2C, symBinAddr: 0x100015C0C, symSize: 0x2C }
  - { offsetInCU: 0x29D1A, offset: 0x29D1A, size: 0x8, addend: 0x0, symName: __ZNKSt3__110unique_ptrINS_11__hash_nodeINS_17__hash_value_typeIiNS_15__list_iteratorINS_4pairIiNS_12basic_stringIcNS_11char_traitsIcEENS_9allocatorIcEEEEEEPvEEEESC_EENS_22__hash_node_destructorINS8_ISF_EEEEEptB7v160006Ev, symObjAddr: 0x11D58, symBinAddr: 0x100015C38, symSize: 0x28 }
  - { offsetInCU: 0x29D3E, offset: 0x29D3E, size: 0x8, addend: 0x0, symName: __ZNKSt3__110unique_ptrINS_11__hash_nodeINS_17__hash_value_typeIiNS_15__list_iteratorINS_4pairIiNS_12basic_stringIcNS_11char_traitsIcEENS_9allocatorIcEEEEEEPvEEEESC_EENS_22__hash_node_destructorINS8_ISF_EEEEE3getB7v160006Ev, symObjAddr: 0x11D80, symBinAddr: 0x100015C60, symSize: 0x28 }
  - { offsetInCU: 0x29D62, offset: 0x29D62, size: 0x8, addend: 0x0, symName: __ZNSt3__110unique_ptrINS_11__hash_nodeINS_17__hash_value_typeIiNS_15__list_iteratorINS_4pairIiNS_12basic_stringIcNS_11char_traitsIcEENS_9allocatorIcEEEEEEPvEEEESC_EENS_22__hash_node_destructorINS8_ISF_EEEEE7releaseB7v160006Ev, symObjAddr: 0x11DA8, symBinAddr: 0x100015C88, symSize: 0x44 }
  - { offsetInCU: 0x29D9B, offset: 0x29D9B, size: 0x8, addend: 0x0, symName: __ZNSt3__14pairINS_15__hash_iteratorIPNS_11__hash_nodeINS_17__hash_value_typeIiNS_15__list_iteratorINS0_IiNS_12basic_stringIcNS_11char_traitsIcEENS_9allocatorIcEEEEEEPvEEEESC_EEEEbEC1B7v160006ISH_RbLSC_0EEEOT_OT0_, symObjAddr: 0x11DEC, symBinAddr: 0x100015CCC, symSize: 0x3C }
  - { offsetInCU: 0x29DF8, offset: 0x29DF8, size: 0x8, addend: 0x0, symName: __ZNSt3__116allocator_traitsINS_9allocatorINS_11__hash_nodeINS_17__hash_value_typeIiNS_15__list_iteratorINS_4pairIiNS_12basic_stringIcNS_11char_traitsIcEENS1_IcEEEEEEPvEEEESC_EEEEE8allocateB7v160006ERSG_m, symObjAddr: 0x11E28, symBinAddr: 0x100015D08, symSize: 0x2C }
  - { offsetInCU: 0x29E2B, offset: 0x29E2B, size: 0x8, addend: 0x0, symName: __ZNSt3__116allocator_traitsINS_9allocatorINS_11__hash_nodeINS_17__hash_value_typeIiNS_15__list_iteratorINS_4pairIiNS_12basic_stringIcNS_11char_traitsIcEENS1_IcEEEEEEPvEEEESC_EEEEE9constructB7v160006INS5_IKiSD_EEJRKNS_21piecewise_construct_tENS_5tupleIJRSJ_EEENSO_IJEEEEvvEEvRSG_PT_DpOT0_, symObjAddr: 0x11E54, symBinAddr: 0x100015D34, symSize: 0x40 }
  - { offsetInCU: 0x29EA7, offset: 0x29EA7, size: 0x8, addend: 0x0, symName: __ZNSt3__110unique_ptrINS_11__hash_nodeINS_17__hash_value_typeIiNS_15__list_iteratorINS_4pairIiNS_12basic_stringIcNS_11char_traitsIcEENS_9allocatorIcEEEEEEPvEEEESC_EENS_22__hash_node_destructorINS8_ISF_EEEEE11get_deleterB7v160006Ev, symObjAddr: 0x11E94, symBinAddr: 0x100015D74, symSize: 0x24 }
  - { offsetInCU: 0x29ECB, offset: 0x29ECB, size: 0x8, addend: 0x0, symName: __ZNSt3__19allocatorINS_11__hash_nodeINS_17__hash_value_typeIiNS_15__list_iteratorINS_4pairIiNS_12basic_stringIcNS_11char_traitsIcEENS0_IcEEEEEEPvEEEESB_EEE8allocateB7v160006Em, symObjAddr: 0x11EB8, symBinAddr: 0x100015D98, symSize: 0x58 }
  - { offsetInCU: 0x29F08, offset: 0x29F08, size: 0x8, addend: 0x0, symName: __ZNSt3__116allocator_traitsINS_9allocatorINS_11__hash_nodeINS_17__hash_value_typeIiNS_15__list_iteratorINS_4pairIiNS_12basic_stringIcNS_11char_traitsIcEENS1_IcEEEEEEPvEEEESC_EEEEE8max_sizeB7v160006ISG_vvEEmRKSG_, symObjAddr: 0x11F10, symBinAddr: 0x100015DF0, symSize: 0x28 }
  - { offsetInCU: 0x29F34, offset: 0x29F34, size: 0x8, addend: 0x0, symName: __ZNSt3__14pairIKiNS_15__list_iteratorINS0_IiNS_12basic_stringIcNS_11char_traitsIcEENS_9allocatorIcEEEEEEPvEEEC1B7v160006IJRS1_EJEEENS_21piecewise_construct_tENS_5tupleIJDpT_EEENSG_IJDpT0_EEE, symObjAddr: 0x11F88, symBinAddr: 0x100015E68, symSize: 0x44 }
  - { offsetInCU: 0x29F9A, offset: 0x29F9A, size: 0x8, addend: 0x0, symName: __ZNSt3__14pairIKiNS_15__list_iteratorINS0_IiNS_12basic_stringIcNS_11char_traitsIcEENS_9allocatorIcEEEEEEPvEEEC1B7v160006IJRS1_EJEJLm0EEJEEENS_21piecewise_construct_tERNS_5tupleIJDpT_EEERNSG_IJDpT0_EEENS_15__tuple_indicesIJXspT1_EEEENSP_IJXspT2_EEEE, symObjAddr: 0x11FCC, symBinAddr: 0x100015EAC, symSize: 0x3C }
  - { offsetInCU: 0x2A029, offset: 0x2A029, size: 0x8, addend: 0x0, symName: __ZNSt3__14pairIKiNS_15__list_iteratorINS0_IiNS_12basic_stringIcNS_11char_traitsIcEENS_9allocatorIcEEEEEEPvEEEC2B7v160006IJRS1_EJEJLm0EEJEEENS_21piecewise_construct_tERNS_5tupleIJDpT_EEERNSG_IJDpT0_EEENS_15__tuple_indicesIJXspT1_EEEENSP_IJXspT2_EEEE, symObjAddr: 0x12008, symBinAddr: 0x100015EE8, symSize: 0x4C }
  - { offsetInCU: 0x2A0B8, offset: 0x2A0B8, size: 0x8, addend: 0x0, symName: __ZNSt3__115__list_iteratorINS_4pairIiNS_12basic_stringIcNS_11char_traitsIcEENS_9allocatorIcEEEEEEPvEC1B7v160006Ev, symObjAddr: 0x12078, symBinAddr: 0x100015F58, symSize: 0x2C }
  - { offsetInCU: 0x2A0E1, offset: 0x2A0E1, size: 0x8, addend: 0x0, symName: __ZNSt3__112__tuple_leafILm0ERKiLb0EE3getB7v160006Ev, symObjAddr: 0x120A4, symBinAddr: 0x100015F84, symSize: 0x18 }
  - { offsetInCU: 0x2A106, offset: 0x2A106, size: 0x8, addend: 0x0, symName: __ZNSt3__115__list_iteratorINS_4pairIiNS_12basic_stringIcNS_11char_traitsIcEENS_9allocatorIcEEEEEEPvEC2B7v160006Ev, symObjAddr: 0x120BC, symBinAddr: 0x100015F9C, symSize: 0x38 }
  - { offsetInCU: 0x2A12E, offset: 0x2A12E, size: 0x8, addend: 0x0, symName: __ZNSt3__117__compressed_pairIfNS_21__unordered_map_equalIiNS_17__hash_value_typeIiNS_15__list_iteratorINS_4pairIiNS_12basic_stringIcNS_11char_traitsIcEENS_9allocatorIcEEEEEEPvEEEENS_8equal_toIiEENS_4hashIiEELb1EEEE5firstB7v160006Ev, symObjAddr: 0x12104, symBinAddr: 0x100015FE4, symSize: 0x24 }
  - { offsetInCU: 0x2A153, offset: 0x2A153, size: 0x8, addend: 0x0, symName: __ZNSt3__112__hash_tableINS_17__hash_value_typeIiNS_15__list_iteratorINS_4pairIiNS_12basic_stringIcNS_11char_traitsIcEENS_9allocatorIcEEEEEEPvEEEENS_22__unordered_map_hasherIiSD_NS_4hashIiEENS_8equal_toIiEELb1EEENS_21__unordered_map_equalIiSD_SI_SG_Lb1EEENS7_ISD_EEE8__rehashILb1EEEvm, symObjAddr: 0x12128, symBinAddr: 0x100016008, symSize: 0x1A8 }
  - { offsetInCU: 0x2A1A2, offset: 0x2A1A2, size: 0x8, addend: 0x0, symName: __ZNSt3__112__hash_tableINS_17__hash_value_typeIiNS_15__list_iteratorINS_4pairIiNS_12basic_stringIcNS_11char_traitsIcEENS_9allocatorIcEEEEEEPvEEEENS_22__unordered_map_hasherIiSD_NS_4hashIiEENS_8equal_toIiEELb1EEENS_21__unordered_map_equalIiSD_SI_SG_Lb1EEENS7_ISD_EEE11__do_rehashILb1EEEvm, symObjAddr: 0x122D0, symBinAddr: 0x1000161B0, symSize: 0x290 }
  - { offsetInCU: 0x2A283, offset: 0x2A283, size: 0x8, addend: 0x0, symName: __ZNSt3__110unique_ptrIA_PNS_16__hash_node_baseIPNS_11__hash_nodeINS_17__hash_value_typeIiNS_15__list_iteratorINS_4pairIiNS_12basic_stringIcNS_11char_traitsIcEENS_9allocatorIcEEEEEEPvEEEESD_EEEENS_25__bucket_list_deallocatorINS9_ISJ_EEEEE11get_deleterB7v160006Ev, symObjAddr: 0x12570, symBinAddr: 0x100016450, symSize: 0x24 }
  - { offsetInCU: 0x2A2A7, offset: 0x2A2A7, size: 0x8, addend: 0x0, symName: __ZNSt3__110unique_ptrIA_PNS_16__hash_node_baseIPNS_11__hash_nodeINS_17__hash_value_typeIiNS_15__list_iteratorINS_4pairIiNS_12basic_stringIcNS_11char_traitsIcEENS_9allocatorIcEEEEEEPvEEEESD_EEEENS_25__bucket_list_deallocatorINS9_ISJ_EEEEE5resetB7v160006IPSJ_EENS_9enable_ifIXsr28_CheckArrayPointerConversionIT_EE5valueEvE4typeESS_, symObjAddr: 0x12594, symBinAddr: 0x100016474, symSize: 0x78 }
  - { offsetInCU: 0x2A2F3, offset: 0x2A2F3, size: 0x8, addend: 0x0, symName: __ZNSt3__116allocator_traitsINS_9allocatorIPNS_16__hash_node_baseIPNS_11__hash_nodeINS_17__hash_value_typeIiNS_15__list_iteratorINS_4pairIiNS_12basic_stringIcNS_11char_traitsIcEENS1_IcEEEEEEPvEEEESD_EEEEEEE8allocateB7v160006ERSK_m, symObjAddr: 0x1260C, symBinAddr: 0x1000164EC, symSize: 0x2C }
  - { offsetInCU: 0x2A325, offset: 0x2A325, size: 0x8, addend: 0x0, symName: __ZNSt3__19allocatorIPNS_16__hash_node_baseIPNS_11__hash_nodeINS_17__hash_value_typeIiNS_15__list_iteratorINS_4pairIiNS_12basic_stringIcNS_11char_traitsIcEENS0_IcEEEEEEPvEEEESC_EEEEE8allocateB7v160006Em, symObjAddr: 0x12638, symBinAddr: 0x100016518, symSize: 0x58 }
  - { offsetInCU: 0x2A362, offset: 0x2A362, size: 0x8, addend: 0x0, symName: __ZNSt3__116allocator_traitsINS_9allocatorIPNS_16__hash_node_baseIPNS_11__hash_nodeINS_17__hash_value_typeIiNS_15__list_iteratorINS_4pairIiNS_12basic_stringIcNS_11char_traitsIcEENS1_IcEEEEEEPvEEEESD_EEEEEEE8max_sizeB7v160006ISK_vvEEmRKSK_, symObjAddr: 0x12690, symBinAddr: 0x100016570, symSize: 0x28 }
  - { offsetInCU: 0x2A38D, offset: 0x2A38D, size: 0x8, addend: 0x0, symName: __ZNKSt3__117__compressed_pairIPNS_11__hash_nodeINS_17__hash_value_typeIiNS_15__list_iteratorINS_4pairIiNS_12basic_stringIcNS_11char_traitsIcEENS_9allocatorIcEEEEEEPvEEEESC_EENS_22__hash_node_destructorINS8_ISF_EEEEE5firstB7v160006Ev, symObjAddr: 0x126B8, symBinAddr: 0x100016598, symSize: 0x24 }
  - { offsetInCU: 0x2A3B2, offset: 0x2A3B2, size: 0x8, addend: 0x0, symName: __ZNKSt3__122__compressed_pair_elemIPNS_11__hash_nodeINS_17__hash_value_typeIiNS_15__list_iteratorINS_4pairIiNS_12basic_stringIcNS_11char_traitsIcEENS_9allocatorIcEEEEEEPvEEEESC_EELi0ELb0EE5__getB7v160006Ev, symObjAddr: 0x126DC, symBinAddr: 0x1000165BC, symSize: 0x14 }
  - { offsetInCU: 0x2A3D7, offset: 0x2A3D7, size: 0x8, addend: 0x0, symName: __ZNSt3__14pairINS_15__hash_iteratorIPNS_11__hash_nodeINS_17__hash_value_typeIiNS_15__list_iteratorINS0_IiNS_12basic_stringIcNS_11char_traitsIcEENS_9allocatorIcEEEEEEPvEEEESC_EEEEbEC2B7v160006ISH_RbLSC_0EEEOT_OT0_, symObjAddr: 0x126F0, symBinAddr: 0x1000165D0, symSize: 0x38 }
  - { offsetInCU: 0x2A434, offset: 0x2A434, size: 0x8, addend: 0x0, symName: __ZNSt3__15tupleIJRKiEEC1B7v160006INS_4_AndELi0EEES2_, symObjAddr: 0x12728, symBinAddr: 0x100016608, symSize: 0x34 }
  - { offsetInCU: 0x2A47B, offset: 0x2A47B, size: 0x8, addend: 0x0, symName: __ZNSt3__15tupleIJRKiEEC2B7v160006INS_4_AndELi0EEES2_, symObjAddr: 0x1275C, symBinAddr: 0x10001663C, symSize: 0x34 }
  - { offsetInCU: 0x2A4C2, offset: 0x2A4C2, size: 0x8, addend: 0x0, symName: __ZNSt3__112__tuple_implINS_15__tuple_indicesIJLm0EEEEJRKiEEC1B7v160006IJLm0EEJS4_EJEJEJS4_EEENS1_IJXspT_EEEENS_13__tuple_typesIJDpT0_EEENS1_IJXspT1_EEEENS8_IJDpT2_EEEDpOT3_, symObjAddr: 0x12790, symBinAddr: 0x100016670, symSize: 0x34 }
  - { offsetInCU: 0x2A556, offset: 0x2A556, size: 0x8, addend: 0x0, symName: __ZNSt3__112__tuple_implINS_15__tuple_indicesIJLm0EEEEJRKiEEC2B7v160006IJLm0EEJS4_EJEJEJS4_EEENS1_IJXspT_EEEENS_13__tuple_typesIJDpT0_EEENS1_IJXspT1_EEEENS8_IJDpT2_EEEDpOT3_, symObjAddr: 0x127C4, symBinAddr: 0x1000166A4, symSize: 0x34 }
  - { offsetInCU: 0x2A5EA, offset: 0x2A5EA, size: 0x8, addend: 0x0, symName: __ZNSt3__112__tuple_leafILm0ERKiLb0EEC2B7v160006IS2_vEEOT_, symObjAddr: 0x127F8, symBinAddr: 0x1000166D8, symSize: 0x20 }
  - { offsetInCU: 0x2A62C, offset: 0x2A62C, size: 0x8, addend: 0x0, symName: __ZNSt3__114pointer_traitsIPNS_17__hash_value_typeIiNS_15__list_iteratorINS_4pairIiNS_12basic_stringIcNS_11char_traitsIcEENS_9allocatorIcEEEEEEPvEEEEE10pointer_toB7v160006ERSD_, symObjAddr: 0x12818, symBinAddr: 0x1000166F8, symSize: 0x14 }
  - { offsetInCU: 0x2A64F, offset: 0x2A64F, size: 0x8, addend: 0x0, symName: __ZNSt3__114pointer_traitsIPNS_4pairIKiNS_15__list_iteratorINS1_IiNS_12basic_stringIcNS_11char_traitsIcEENS_9allocatorIcEEEEEEPvEEEEE10pointer_toB7v160006ERSD_, symObjAddr: 0x1282C, symBinAddr: 0x10001670C, symSize: 0x14 }
  - { offsetInCU: 0x2A672, offset: 0x2A672, size: 0x8, addend: 0x0, symName: __ZNSt3__14pairIiNS_12basic_stringIcNS_11char_traitsIcEENS_9allocatorIcEEEEEC2ERKS7_, symObjAddr: 0x12840, symBinAddr: 0x100016720, symSize: 0x48 }
  - { offsetInCU: 0x2A6A5, offset: 0x2A6A5, size: 0x8, addend: 0x0, symName: __ZNSt3__116allocator_traitsINS_9allocatorINS_11__list_nodeINS_4pairIiNS_12basic_stringIcNS_11char_traitsIcEENS1_IcEEEEEEPvEEEEE9constructB7v160006IS9_JRKS9_EvvEEvRSC_PT_DpOT0_, symObjAddr: 0x12888, symBinAddr: 0x100016768, symSize: 0x30 }
  - { offsetInCU: 0x2A6FA, offset: 0x2A6FA, size: 0x8, addend: 0x0, symName: __ZNSt3__114pointer_traitsIPNS_4pairIiNS_12basic_stringIcNS_11char_traitsIcEENS_9allocatorIcEEEEEEE10pointer_toB7v160006ERS8_, symObjAddr: 0x128F4, symBinAddr: 0x1000167D4, symSize: 0x14 }
  - { offsetInCU: 0x2A71D, offset: 0x2A71D, size: 0x8, addend: 0x0, symName: __ZNSt3__123mersenne_twister_engineIjLm32ELm624ELm397ELm31ELj2567483615ELm11ELj4294967295ELm7ELj2636928640ELm15ELj4022730752ELm18ELj1812433253EEC2B7v160006Ej, symObjAddr: 0x12908, symBinAddr: 0x1000167E8, symSize: 0x34 }
  - { offsetInCU: 0x2A754, offset: 0x2A754, size: 0x8, addend: 0x0, symName: __ZNSt3__123mersenne_twister_engineIjLm32ELm624ELm397ELm31ELj2567483615ELm11ELj4294967295ELm7ELj2636928640ELm15ELj4022730752ELm18ELj1812433253EE4seedEj, symObjAddr: 0x1293C, symBinAddr: 0x10001681C, symSize: 0xC4 }
  - { offsetInCU: 0x2A7A6, offset: 0x2A7A6, size: 0x8, addend: 0x0, symName: __ZNSt3__123mersenne_twister_engineIjLm32ELm624ELm397ELm31ELj2567483615ELm11ELj4294967295ELm7ELj2636928640ELm15ELj4022730752ELm18ELj1812433253EE8__rshiftB7v160006ILm30EEENS_9enable_ifIXltT_L_ZNS1_3_DtEEEjE4typeEj, symObjAddr: 0x12A00, symBinAddr: 0x1000168E0, symSize: 0x18 }
  - { offsetInCU: 0x2A7D3, offset: 0x2A7D3, size: 0x8, addend: 0x0, symName: __ZN8LruCacheINSt3__112basic_stringIcNS0_11char_traitsIcEENS0_9allocatorIcEEEEiEC2Ei, symObjAddr: 0x12A18, symBinAddr: 0x1000168F8, symSize: 0x44 }
  - { offsetInCU: 0x2A80A, offset: 0x2A80A, size: 0x8, addend: 0x0, symName: __ZNSt3__113unordered_mapINS_12basic_stringIcNS_11char_traitsIcEENS_9allocatorIcEEEENS_15__list_iteratorINS_4pairIS6_iEEPvEENS_4hashIS6_EENS_8equal_toIS6_EENS4_INS8_IKS6_SB_EEEEEC1B7v160006Ev, symObjAddr: 0x12A5C, symBinAddr: 0x10001693C, symSize: 0x2C }
  - { offsetInCU: 0x2A833, offset: 0x2A833, size: 0x8, addend: 0x0, symName: __ZNSt3__14listINS_4pairINS_12basic_stringIcNS_11char_traitsIcEENS_9allocatorIcEEEEiEENS5_IS8_EEEC1B7v160006Ev, symObjAddr: 0x12A88, symBinAddr: 0x100016968, symSize: 0x2C }
  - { offsetInCU: 0x2A85C, offset: 0x2A85C, size: 0x8, addend: 0x0, symName: __ZNSt3__113unordered_mapINS_12basic_stringIcNS_11char_traitsIcEENS_9allocatorIcEEEENS_15__list_iteratorINS_4pairIS6_iEEPvEENS_4hashIS6_EENS_8equal_toIS6_EENS4_INS8_IKS6_SB_EEEEEC2B7v160006Ev, symObjAddr: 0x12AB4, symBinAddr: 0x100016994, symSize: 0x3C }
  - { offsetInCU: 0x2A885, offset: 0x2A885, size: 0x8, addend: 0x0, symName: __ZNSt3__112__hash_tableINS_17__hash_value_typeINS_12basic_stringIcNS_11char_traitsIcEENS_9allocatorIcEEEENS_15__list_iteratorINS_4pairIS7_iEEPvEEEENS_22__unordered_map_hasherIS7_SD_NS_4hashIS7_EENS_8equal_toIS7_EELb1EEENS_21__unordered_map_equalIS7_SD_SI_SG_Lb1EEENS5_ISD_EEEC1Ev, symObjAddr: 0x12AF0, symBinAddr: 0x1000169D0, symSize: 0x2C }
  - { offsetInCU: 0x2A8B0, offset: 0x2A8B0, size: 0x8, addend: 0x0, symName: __ZNSt3__112__hash_tableINS_17__hash_value_typeINS_12basic_stringIcNS_11char_traitsIcEENS_9allocatorIcEEEENS_15__list_iteratorINS_4pairIS7_iEEPvEEEENS_22__unordered_map_hasherIS7_SD_NS_4hashIS7_EENS_8equal_toIS7_EELb1EEENS_21__unordered_map_equalIS7_SD_SI_SG_Lb1EEENS5_ISD_EEEC2Ev, symObjAddr: 0x12B2C, symBinAddr: 0x100016A0C, symSize: 0x7C }
  - { offsetInCU: 0x2A8DB, offset: 0x2A8DB, size: 0x8, addend: 0x0, symName: __ZNSt3__110unique_ptrIA_PNS_16__hash_node_baseIPNS_11__hash_nodeINS_17__hash_value_typeINS_12basic_stringIcNS_11char_traitsIcEENS_9allocatorIcEEEENS_15__list_iteratorINS_4pairIS9_iEEPvEEEESD_EEEENS_25__bucket_list_deallocatorINS7_ISJ_EEEEEC1B7v160006ILb1EvEEv, symObjAddr: 0x12BA8, symBinAddr: 0x100016A88, symSize: 0x2C }
  - { offsetInCU: 0x2A90F, offset: 0x2A90F, size: 0x8, addend: 0x0, symName: __ZNSt3__117__compressed_pairINS_16__hash_node_baseIPNS_11__hash_nodeINS_17__hash_value_typeINS_12basic_stringIcNS_11char_traitsIcEENS_9allocatorIcEEEENS_15__list_iteratorINS_4pairIS9_iEEPvEEEESD_EEEENS7_ISG_EEEC1B7v160006ILb1EvEEv, symObjAddr: 0x12BD4, symBinAddr: 0x100016AB4, symSize: 0x2C }
  - { offsetInCU: 0x2A943, offset: 0x2A943, size: 0x8, addend: 0x0, symName: __ZNSt3__117__compressed_pairImNS_22__unordered_map_hasherINS_12basic_stringIcNS_11char_traitsIcEENS_9allocatorIcEEEENS_17__hash_value_typeIS7_NS_15__list_iteratorINS_4pairIS7_iEEPvEEEENS_4hashIS7_EENS_8equal_toIS7_EELb1EEEEC1B7v160006IiNS_18__default_init_tagEEEOT_OT0_, symObjAddr: 0x12C00, symBinAddr: 0x100016AE0, symSize: 0x3C }
  - { offsetInCU: 0x2A99A, offset: 0x2A99A, size: 0x8, addend: 0x0, symName: __ZNSt3__117__compressed_pairIfNS_21__unordered_map_equalINS_12basic_stringIcNS_11char_traitsIcEENS_9allocatorIcEEEENS_17__hash_value_typeIS7_NS_15__list_iteratorINS_4pairIS7_iEEPvEEEENS_8equal_toIS7_EENS_4hashIS7_EELb1EEEEC1B7v160006IfNS_18__default_init_tagEEEOT_OT0_, symObjAddr: 0x12C3C, symBinAddr: 0x100016B1C, symSize: 0x3C }
  - { offsetInCU: 0x2A9F1, offset: 0x2A9F1, size: 0x8, addend: 0x0, symName: __ZNSt3__110unique_ptrIA_PNS_16__hash_node_baseIPNS_11__hash_nodeINS_17__hash_value_typeINS_12basic_stringIcNS_11char_traitsIcEENS_9allocatorIcEEEENS_15__list_iteratorINS_4pairIS9_iEEPvEEEESD_EEEENS_25__bucket_list_deallocatorINS7_ISJ_EEEEEC2B7v160006ILb1EvEEv, symObjAddr: 0x12C78, symBinAddr: 0x100016B58, symSize: 0x3C }
  - { offsetInCU: 0x2AA25, offset: 0x2AA25, size: 0x8, addend: 0x0, symName: __ZNSt3__117__compressed_pairIPPNS_16__hash_node_baseIPNS_11__hash_nodeINS_17__hash_value_typeINS_12basic_stringIcNS_11char_traitsIcEENS_9allocatorIcEEEENS_15__list_iteratorINS_4pairIS9_iEEPvEEEESD_EEEENS_25__bucket_list_deallocatorINS7_ISJ_EEEEEC1B7v160006INS_16__value_init_tagESQ_EEOT_OT0_, symObjAddr: 0x12CB4, symBinAddr: 0x100016B94, symSize: 0x3C }
  - { offsetInCU: 0x2AA7C, offset: 0x2AA7C, size: 0x8, addend: 0x0, symName: __ZNSt3__117__compressed_pairIPPNS_16__hash_node_baseIPNS_11__hash_nodeINS_17__hash_value_typeINS_12basic_stringIcNS_11char_traitsIcEENS_9allocatorIcEEEENS_15__list_iteratorINS_4pairIS9_iEEPvEEEESD_EEEENS_25__bucket_list_deallocatorINS7_ISJ_EEEEEC2B7v160006INS_16__value_init_tagESQ_EEOT_OT0_, symObjAddr: 0x12CF0, symBinAddr: 0x100016BD0, symSize: 0x40 }
  - { offsetInCU: 0x2AAD3, offset: 0x2AAD3, size: 0x8, addend: 0x0, symName: __ZNSt3__122__compressed_pair_elemIPPNS_16__hash_node_baseIPNS_11__hash_nodeINS_17__hash_value_typeINS_12basic_stringIcNS_11char_traitsIcEENS_9allocatorIcEEEENS_15__list_iteratorINS_4pairIS9_iEEPvEEEESD_EEEELi0ELb0EEC2B7v160006ENS_16__value_init_tagE, symObjAddr: 0x12D30, symBinAddr: 0x100016C10, symSize: 0x18 }
  - { offsetInCU: 0x2AB06, offset: 0x2AB06, size: 0x8, addend: 0x0, symName: __ZNSt3__122__compressed_pair_elemINS_25__bucket_list_deallocatorINS_9allocatorIPNS_16__hash_node_baseIPNS_11__hash_nodeINS_17__hash_value_typeINS_12basic_stringIcNS_11char_traitsIcEENS2_IcEEEENS_15__list_iteratorINS_4pairISA_iEEPvEEEESE_EEEEEEEELi1ELb0EEC2B7v160006ENS_16__value_init_tagE, symObjAddr: 0x12D48, symBinAddr: 0x100016C28, symSize: 0x2C }
  - { offsetInCU: 0x2AB39, offset: 0x2AB39, size: 0x8, addend: 0x0, symName: __ZNSt3__125__bucket_list_deallocatorINS_9allocatorIPNS_16__hash_node_baseIPNS_11__hash_nodeINS_17__hash_value_typeINS_12basic_stringIcNS_11char_traitsIcEENS1_IcEEEENS_15__list_iteratorINS_4pairIS9_iEEPvEEEESD_EEEEEEEC1B7v160006Ev, symObjAddr: 0x12D74, symBinAddr: 0x100016C54, symSize: 0x2C }
  - { offsetInCU: 0x2AB62, offset: 0x2AB62, size: 0x8, addend: 0x0, symName: __ZNSt3__125__bucket_list_deallocatorINS_9allocatorIPNS_16__hash_node_baseIPNS_11__hash_nodeINS_17__hash_value_typeINS_12basic_stringIcNS_11char_traitsIcEENS1_IcEEEENS_15__list_iteratorINS_4pairIS9_iEEPvEEEESD_EEEEEEEC2B7v160006Ev, symObjAddr: 0x12DA0, symBinAddr: 0x100016C80, symSize: 0x40 }
  - { offsetInCU: 0x2AB8B, offset: 0x2AB8B, size: 0x8, addend: 0x0, symName: __ZNSt3__117__compressed_pairImNS_9allocatorIPNS_16__hash_node_baseIPNS_11__hash_nodeINS_17__hash_value_typeINS_12basic_stringIcNS_11char_traitsIcEENS1_IcEEEENS_15__list_iteratorINS_4pairIS9_iEEPvEEEESD_EEEEEEEC1B7v160006IiNS_18__default_init_tagEEEOT_OT0_, symObjAddr: 0x12DE0, symBinAddr: 0x100016CC0, symSize: 0x3C }
  - { offsetInCU: 0x2ABE2, offset: 0x2ABE2, size: 0x8, addend: 0x0, symName: __ZNSt3__117__compressed_pairImNS_9allocatorIPNS_16__hash_node_baseIPNS_11__hash_nodeINS_17__hash_value_typeINS_12basic_stringIcNS_11char_traitsIcEENS1_IcEEEENS_15__list_iteratorINS_4pairIS9_iEEPvEEEESD_EEEEEEEC2B7v160006IiNS_18__default_init_tagEEEOT_OT0_, symObjAddr: 0x12E1C, symBinAddr: 0x100016CFC, symSize: 0x40 }
  - { offsetInCU: 0x2AC39, offset: 0x2AC39, size: 0x8, addend: 0x0, symName: __ZNSt3__122__compressed_pair_elemINS_9allocatorIPNS_16__hash_node_baseIPNS_11__hash_nodeINS_17__hash_value_typeINS_12basic_stringIcNS_11char_traitsIcEENS1_IcEEEENS_15__list_iteratorINS_4pairIS9_iEEPvEEEESD_EEEEEELi1ELb1EEC2B7v160006ENS_18__default_init_tagE, symObjAddr: 0x12E5C, symBinAddr: 0x100016D3C, symSize: 0x2C }
  - { offsetInCU: 0x2AC6C, offset: 0x2AC6C, size: 0x8, addend: 0x0, symName: __ZNSt3__19allocatorIPNS_16__hash_node_baseIPNS_11__hash_nodeINS_17__hash_value_typeINS_12basic_stringIcNS_11char_traitsIcEENS0_IcEEEENS_15__list_iteratorINS_4pairIS8_iEEPvEEEESC_EEEEEC2B7v160006Ev, symObjAddr: 0x12E88, symBinAddr: 0x100016D68, symSize: 0x2C }
  - { offsetInCU: 0x2AC95, offset: 0x2AC95, size: 0x8, addend: 0x0, symName: __ZNSt3__116__non_trivial_ifILb1ENS_9allocatorIPNS_16__hash_node_baseIPNS_11__hash_nodeINS_17__hash_value_typeINS_12basic_stringIcNS_11char_traitsIcEENS1_IcEEEENS_15__list_iteratorINS_4pairIS9_iEEPvEEEESD_EEEEEEEC2B7v160006Ev, symObjAddr: 0x12EB4, symBinAddr: 0x100016D94, symSize: 0x14 }
  - { offsetInCU: 0x2ACBE, offset: 0x2ACBE, size: 0x8, addend: 0x0, symName: __ZNSt3__117__compressed_pairINS_16__hash_node_baseIPNS_11__hash_nodeINS_17__hash_value_typeINS_12basic_stringIcNS_11char_traitsIcEENS_9allocatorIcEEEENS_15__list_iteratorINS_4pairIS9_iEEPvEEEESD_EEEENS7_ISG_EEEC2B7v160006ILb1EvEEv, symObjAddr: 0x12EC8, symBinAddr: 0x100016DA8, symSize: 0x34 }
  - { offsetInCU: 0x2ACF2, offset: 0x2ACF2, size: 0x8, addend: 0x0, symName: __ZNSt3__122__compressed_pair_elemINS_16__hash_node_baseIPNS_11__hash_nodeINS_17__hash_value_typeINS_12basic_stringIcNS_11char_traitsIcEENS_9allocatorIcEEEENS_15__list_iteratorINS_4pairIS9_iEEPvEEEESD_EEEELi0ELb0EEC2B7v160006ENS_16__value_init_tagE, symObjAddr: 0x12EFC, symBinAddr: 0x100016DDC, symSize: 0x2C }
  - { offsetInCU: 0x2AD25, offset: 0x2AD25, size: 0x8, addend: 0x0, symName: __ZNSt3__122__compressed_pair_elemINS_9allocatorINS_11__hash_nodeINS_17__hash_value_typeINS_12basic_stringIcNS_11char_traitsIcEENS1_IcEEEENS_15__list_iteratorINS_4pairIS8_iEEPvEEEESC_EEEELi1ELb1EEC2B7v160006ENS_16__value_init_tagE, symObjAddr: 0x12F28, symBinAddr: 0x100016E08, symSize: 0x2C }
  - { offsetInCU: 0x2AD58, offset: 0x2AD58, size: 0x8, addend: 0x0, symName: __ZNSt3__116__hash_node_baseIPNS_11__hash_nodeINS_17__hash_value_typeINS_12basic_stringIcNS_11char_traitsIcEENS_9allocatorIcEEEENS_15__list_iteratorINS_4pairIS8_iEEPvEEEESC_EEEC1B7v160006Ev, symObjAddr: 0x12F54, symBinAddr: 0x100016E34, symSize: 0x2C }
  - { offsetInCU: 0x2AD81, offset: 0x2AD81, size: 0x8, addend: 0x0, symName: __ZNSt3__116__hash_node_baseIPNS_11__hash_nodeINS_17__hash_value_typeINS_12basic_stringIcNS_11char_traitsIcEENS_9allocatorIcEEEENS_15__list_iteratorINS_4pairIS8_iEEPvEEEESC_EEEC2B7v160006Ev, symObjAddr: 0x12F80, symBinAddr: 0x100016E60, symSize: 0x18 }
  - { offsetInCU: 0x2ADAA, offset: 0x2ADAA, size: 0x8, addend: 0x0, symName: __ZNSt3__19allocatorINS_11__hash_nodeINS_17__hash_value_typeINS_12basic_stringIcNS_11char_traitsIcEENS0_IcEEEENS_15__list_iteratorINS_4pairIS7_iEEPvEEEESB_EEEC2B7v160006Ev, symObjAddr: 0x12F98, symBinAddr: 0x100016E78, symSize: 0x2C }
  - { offsetInCU: 0x2ADD3, offset: 0x2ADD3, size: 0x8, addend: 0x0, symName: __ZNSt3__116__non_trivial_ifILb1ENS_9allocatorINS_11__hash_nodeINS_17__hash_value_typeINS_12basic_stringIcNS_11char_traitsIcEENS1_IcEEEENS_15__list_iteratorINS_4pairIS8_iEEPvEEEESC_EEEEEC2B7v160006Ev, symObjAddr: 0x12FC4, symBinAddr: 0x100016EA4, symSize: 0x14 }
  - { offsetInCU: 0x2ADFC, offset: 0x2ADFC, size: 0x8, addend: 0x0, symName: __ZNSt3__117__compressed_pairImNS_22__unordered_map_hasherINS_12basic_stringIcNS_11char_traitsIcEENS_9allocatorIcEEEENS_17__hash_value_typeIS7_NS_15__list_iteratorINS_4pairIS7_iEEPvEEEENS_4hashIS7_EENS_8equal_toIS7_EELb1EEEEC2B7v160006IiNS_18__default_init_tagEEEOT_OT0_, symObjAddr: 0x12FD8, symBinAddr: 0x100016EB8, symSize: 0x40 }
  - { offsetInCU: 0x2AE53, offset: 0x2AE53, size: 0x8, addend: 0x0, symName: __ZNSt3__122__compressed_pair_elemINS_22__unordered_map_hasherINS_12basic_stringIcNS_11char_traitsIcEENS_9allocatorIcEEEENS_17__hash_value_typeIS7_NS_15__list_iteratorINS_4pairIS7_iEEPvEEEENS_4hashIS7_EENS_8equal_toIS7_EELb1EEELi1ELb1EEC2B7v160006ENS_18__default_init_tagE, symObjAddr: 0x13018, symBinAddr: 0x100016EF8, symSize: 0x2C }
  - { offsetInCU: 0x2AE86, offset: 0x2AE86, size: 0x8, addend: 0x0, symName: __ZNSt3__122__unordered_map_hasherINS_12basic_stringIcNS_11char_traitsIcEENS_9allocatorIcEEEENS_17__hash_value_typeIS6_NS_15__list_iteratorINS_4pairIS6_iEEPvEEEENS_4hashIS6_EENS_8equal_toIS6_EELb1EEC2B7v160006Ev, symObjAddr: 0x13044, symBinAddr: 0x100016F24, symSize: 0x14 }
  - { offsetInCU: 0x2AEAF, offset: 0x2AEAF, size: 0x8, addend: 0x0, symName: __ZNSt3__117__compressed_pairIfNS_21__unordered_map_equalINS_12basic_stringIcNS_11char_traitsIcEENS_9allocatorIcEEEENS_17__hash_value_typeIS7_NS_15__list_iteratorINS_4pairIS7_iEEPvEEEENS_8equal_toIS7_EENS_4hashIS7_EELb1EEEEC2B7v160006IfNS_18__default_init_tagEEEOT_OT0_, symObjAddr: 0x13058, symBinAddr: 0x100016F38, symSize: 0x40 }
  - { offsetInCU: 0x2AF06, offset: 0x2AF06, size: 0x8, addend: 0x0, symName: __ZNSt3__122__compressed_pair_elemINS_21__unordered_map_equalINS_12basic_stringIcNS_11char_traitsIcEENS_9allocatorIcEEEENS_17__hash_value_typeIS7_NS_15__list_iteratorINS_4pairIS7_iEEPvEEEENS_8equal_toIS7_EENS_4hashIS7_EELb1EEELi1ELb1EEC2B7v160006ENS_18__default_init_tagE, symObjAddr: 0x13098, symBinAddr: 0x100016F78, symSize: 0x2C }
  - { offsetInCU: 0x2AF39, offset: 0x2AF39, size: 0x8, addend: 0x0, symName: __ZNSt3__121__unordered_map_equalINS_12basic_stringIcNS_11char_traitsIcEENS_9allocatorIcEEEENS_17__hash_value_typeIS6_NS_15__list_iteratorINS_4pairIS6_iEEPvEEEENS_8equal_toIS6_EENS_4hashIS6_EELb1EEC2B7v160006Ev, symObjAddr: 0x130C4, symBinAddr: 0x100016FA4, symSize: 0x14 }
  - { offsetInCU: 0x2AF62, offset: 0x2AF62, size: 0x8, addend: 0x0, symName: __ZNSt3__14listINS_4pairINS_12basic_stringIcNS_11char_traitsIcEENS_9allocatorIcEEEEiEENS5_IS8_EEEC2B7v160006Ev, symObjAddr: 0x130D8, symBinAddr: 0x100016FB8, symSize: 0x3C }
  - { offsetInCU: 0x2AF8B, offset: 0x2AF8B, size: 0x8, addend: 0x0, symName: __ZNSt3__110__list_impINS_4pairINS_12basic_stringIcNS_11char_traitsIcEENS_9allocatorIcEEEEiEENS5_IS8_EEEC2Ev, symObjAddr: 0x13114, symBinAddr: 0x100016FF4, symSize: 0x50 }
  - { offsetInCU: 0x2AFB6, offset: 0x2AFB6, size: 0x8, addend: 0x0, symName: __ZNSt3__116__list_node_baseINS_4pairINS_12basic_stringIcNS_11char_traitsIcEENS_9allocatorIcEEEEiEEPvEC1B7v160006Ev, symObjAddr: 0x13174, symBinAddr: 0x100017054, symSize: 0x2C }
  - { offsetInCU: 0x2AFDF, offset: 0x2AFDF, size: 0x8, addend: 0x0, symName: __ZNSt3__117__compressed_pairImNS_9allocatorINS_11__list_nodeINS_4pairINS_12basic_stringIcNS_11char_traitsIcEENS1_IcEEEEiEEPvEEEEEC1B7v160006IiNS_18__default_init_tagEEEOT_OT0_, symObjAddr: 0x131A0, symBinAddr: 0x100017080, symSize: 0x3C }
  - { offsetInCU: 0x2B036, offset: 0x2B036, size: 0x8, addend: 0x0, symName: __ZNSt3__116__list_node_baseINS_4pairINS_12basic_stringIcNS_11char_traitsIcEENS_9allocatorIcEEEEiEEPvEC2B7v160006Ev, symObjAddr: 0x131DC, symBinAddr: 0x1000170BC, symSize: 0x4C }
  - { offsetInCU: 0x2B05F, offset: 0x2B05F, size: 0x8, addend: 0x0, symName: __ZNSt3__117__compressed_pairImNS_9allocatorINS_11__list_nodeINS_4pairINS_12basic_stringIcNS_11char_traitsIcEENS1_IcEEEEiEEPvEEEEEC2B7v160006IiNS_18__default_init_tagEEEOT_OT0_, symObjAddr: 0x13228, symBinAddr: 0x100017108, symSize: 0x40 }
  - { offsetInCU: 0x2B0B6, offset: 0x2B0B6, size: 0x8, addend: 0x0, symName: __ZNSt3__122__compressed_pair_elemINS_9allocatorINS_11__list_nodeINS_4pairINS_12basic_stringIcNS_11char_traitsIcEENS1_IcEEEEiEEPvEEEELi1ELb1EEC2B7v160006ENS_18__default_init_tagE, symObjAddr: 0x13268, symBinAddr: 0x100017148, symSize: 0x2C }
  - { offsetInCU: 0x2B0E9, offset: 0x2B0E9, size: 0x8, addend: 0x0, symName: __ZNSt3__19allocatorINS_11__list_nodeINS_4pairINS_12basic_stringIcNS_11char_traitsIcEENS0_IcEEEEiEEPvEEEC2B7v160006Ev, symObjAddr: 0x13294, symBinAddr: 0x100017174, symSize: 0x2C }
  - { offsetInCU: 0x2B112, offset: 0x2B112, size: 0x8, addend: 0x0, symName: __ZNSt3__116__non_trivial_ifILb1ENS_9allocatorINS_11__list_nodeINS_4pairINS_12basic_stringIcNS_11char_traitsIcEENS1_IcEEEEiEEPvEEEEEC2B7v160006Ev, symObjAddr: 0x132C0, symBinAddr: 0x1000171A0, symSize: 0x14 }
  - { offsetInCU: 0x2B13B, offset: 0x2B13B, size: 0x8, addend: 0x0, symName: __ZNSt3__123mersenne_twister_engineIjLm32ELm624ELm397ELm31ELj2567483615ELm11ELj4294967295ELm7ELj2636928640ELm15ELj4022730752ELm18ELj1812433253EE8__rshiftB7v160006ILm1EEENS_9enable_ifIXltT_L_ZNS1_3_DtEEEjE4typeEj, symObjAddr: 0x132D4, symBinAddr: 0x1000171B4, symSize: 0x18 }
  - { offsetInCU: 0x2B168, offset: 0x2B168, size: 0x8, addend: 0x0, symName: __ZNSt3__123mersenne_twister_engineIjLm32ELm624ELm397ELm31ELj2567483615ELm11ELj4294967295ELm7ELj2636928640ELm15ELj4022730752ELm18ELj1812433253EE8__rshiftB7v160006ILm11EEENS_9enable_ifIXltT_L_ZNS1_3_DtEEEjE4typeEj, symObjAddr: 0x132EC, symBinAddr: 0x1000171CC, symSize: 0x18 }
  - { offsetInCU: 0x2B195, offset: 0x2B195, size: 0x8, addend: 0x0, symName: __ZNSt3__123mersenne_twister_engineIjLm32ELm624ELm397ELm31ELj2567483615ELm11ELj4294967295ELm7ELj2636928640ELm15ELj4022730752ELm18ELj1812433253EE8__lshiftB7v160006ILm7EEENS_9enable_ifIXltT_Lm32EEjE4typeEj, symObjAddr: 0x13304, symBinAddr: 0x1000171E4, symSize: 0x1C }
  - { offsetInCU: 0x2B1C2, offset: 0x2B1C2, size: 0x8, addend: 0x0, symName: __ZNSt3__123mersenne_twister_engineIjLm32ELm624ELm397ELm31ELj2567483615ELm11ELj4294967295ELm7ELj2636928640ELm15ELj4022730752ELm18ELj1812433253EE8__lshiftB7v160006ILm15EEENS_9enable_ifIXltT_Lm32EEjE4typeEj, symObjAddr: 0x13320, symBinAddr: 0x100017200, symSize: 0x1C }
  - { offsetInCU: 0x2B1EF, offset: 0x2B1EF, size: 0x8, addend: 0x0, symName: __ZNSt3__123mersenne_twister_engineIjLm32ELm624ELm397ELm31ELj2567483615ELm11ELj4294967295ELm7ELj2636928640ELm15ELj4022730752ELm18ELj1812433253EE8__rshiftB7v160006ILm18EEENS_9enable_ifIXltT_L_ZNS1_3_DtEEEjE4typeEj, symObjAddr: 0x1333C, symBinAddr: 0x10001721C, symSize: 0x18 }
  - { offsetInCU: 0x2B21B, offset: 0x2B21B, size: 0x8, addend: 0x0, symName: __ZNSt3__113unordered_mapINS_12basic_stringIcNS_11char_traitsIcEENS_9allocatorIcEEEENS_15__list_iteratorINS_4pairIS6_iEEPvEENS_4hashIS6_EENS_8equal_toIS6_EENS4_INS8_IKS6_SB_EEEEE4findB7v160006ERSG_, symObjAddr: 0x13354, symBinAddr: 0x100017234, symSize: 0x40 }
  - { offsetInCU: 0x2B24E, offset: 0x2B24E, size: 0x8, addend: 0x0, symName: __ZNSt3__113unordered_mapINS_12basic_stringIcNS_11char_traitsIcEENS_9allocatorIcEEEENS_15__list_iteratorINS_4pairIS6_iEEPvEENS_4hashIS6_EENS_8equal_toIS6_EENS4_INS8_IKS6_SB_EEEEE3endB7v160006Ev, symObjAddr: 0x133C4, symBinAddr: 0x1000172A4, symSize: 0x38 }
  - { offsetInCU: 0x2B273, offset: 0x2B273, size: 0x8, addend: 0x0, symName: __ZNSt3__14listINS_4pairINS_12basic_stringIcNS_11char_traitsIcEENS_9allocatorIcEEEEiEENS5_IS8_EEE5eraseENS_21__list_const_iteratorIS8_PvEE, symObjAddr: 0x133FC, symBinAddr: 0x1000172DC, symSize: 0xA4 }
  - { offsetInCU: 0x2B2E4, offset: 0x2B2E4, size: 0x8, addend: 0x0, symName: __ZNKSt3__119__hash_map_iteratorINS_15__hash_iteratorIPNS_11__hash_nodeINS_17__hash_value_typeINS_12basic_stringIcNS_11char_traitsIcEENS_9allocatorIcEEEENS_15__list_iteratorINS_4pairIS9_iEEPvEEEESD_EEEEEptB7v160006Ev, symObjAddr: 0x134A0, symBinAddr: 0x100017380, symSize: 0x2C }
  - { offsetInCU: 0x2B309, offset: 0x2B309, size: 0x8, addend: 0x0, symName: __ZNSt3__121__list_const_iteratorINS_4pairINS_12basic_stringIcNS_11char_traitsIcEENS_9allocatorIcEEEEiEEPvEC1B7v160006ERKNS_15__list_iteratorIS8_S9_EE, symObjAddr: 0x134CC, symBinAddr: 0x1000173AC, symSize: 0x34 }
  - { offsetInCU: 0x2B340, offset: 0x2B340, size: 0x8, addend: 0x0, symName: __ZNKSt3__115__list_iteratorINS_4pairINS_12basic_stringIcNS_11char_traitsIcEENS_9allocatorIcEEEEiEEPvEdeB7v160006Ev, symObjAddr: 0x13500, symBinAddr: 0x1000173E0, symSize: 0x2C }
  - { offsetInCU: 0x2B365, offset: 0x2B365, size: 0x8, addend: 0x0, symName: __ZNSt3__14pairINS_12basic_stringIcNS_11char_traitsIcEENS_9allocatorIcEEEEiEC1ERKS7_, symObjAddr: 0x1352C, symBinAddr: 0x10001740C, symSize: 0x34 }
  - { offsetInCU: 0x2B398, offset: 0x2B398, size: 0x8, addend: 0x0, symName: __ZNSt3__14listINS_4pairINS_12basic_stringIcNS_11char_traitsIcEENS_9allocatorIcEEEEiEENS5_IS8_EEE9push_backERKS8_, symObjAddr: 0x13560, symBinAddr: 0x100017440, symSize: 0xF4 }
  - { offsetInCU: 0x2B3EB, offset: 0x2B3EB, size: 0x8, addend: 0x0, symName: __ZNSt3__14listINS_4pairINS_12basic_stringIcNS_11char_traitsIcEENS_9allocatorIcEEEEiEENS5_IS8_EEE3endB7v160006Ev, symObjAddr: 0x136AC, symBinAddr: 0x10001758C, symSize: 0x2C }
  - { offsetInCU: 0x2B40F, offset: 0x2B40F, size: 0x8, addend: 0x0, symName: __ZNKSt3__115__list_iteratorINS_4pairINS_12basic_stringIcNS_11char_traitsIcEENS_9allocatorIcEEEEiEEPvEptB7v160006Ev, symObjAddr: 0x136D8, symBinAddr: 0x1000175B8, symSize: 0x30 }
  - { offsetInCU: 0x2B434, offset: 0x2B434, size: 0x8, addend: 0x0, symName: __ZNSt3__112__hash_tableINS_17__hash_value_typeINS_12basic_stringIcNS_11char_traitsIcEENS_9allocatorIcEEEENS_15__list_iteratorINS_4pairIS7_iEEPvEEEENS_22__unordered_map_hasherIS7_SD_NS_4hashIS7_EENS_8equal_toIS7_EELb1EEENS_21__unordered_map_equalIS7_SD_SI_SG_Lb1EEENS5_ISD_EEE4findIS7_EENS_15__hash_iteratorIPNS_11__hash_nodeISD_SB_EEEERKT_, symObjAddr: 0x13708, symBinAddr: 0x1000175E8, symSize: 0x1B4 }
  - { offsetInCU: 0x2B4BD, offset: 0x2B4BD, size: 0x8, addend: 0x0, symName: __ZNSt3__119__hash_map_iteratorINS_15__hash_iteratorIPNS_11__hash_nodeINS_17__hash_value_typeINS_12basic_stringIcNS_11char_traitsIcEENS_9allocatorIcEEEENS_15__list_iteratorINS_4pairIS9_iEEPvEEEESD_EEEEEC1B7v160006ESI_, symObjAddr: 0x138BC, symBinAddr: 0x10001779C, symSize: 0x34 }
  - { offsetInCU: 0x2B4F4, offset: 0x2B4F4, size: 0x8, addend: 0x0, symName: __ZNSt3__112__hash_tableINS_17__hash_value_typeINS_12basic_stringIcNS_11char_traitsIcEENS_9allocatorIcEEEENS_15__list_iteratorINS_4pairIS7_iEEPvEEEENS_22__unordered_map_hasherIS7_SD_NS_4hashIS7_EENS_8equal_toIS7_EELb1EEENS_21__unordered_map_equalIS7_SD_SI_SG_Lb1EEENS5_ISD_EEE13hash_functionB7v160006Ev, symObjAddr: 0x138F0, symBinAddr: 0x1000177D0, symSize: 0x28 }
  - { offsetInCU: 0x2B518, offset: 0x2B518, size: 0x8, addend: 0x0, symName: __ZNKSt3__122__unordered_map_hasherINS_12basic_stringIcNS_11char_traitsIcEENS_9allocatorIcEEEENS_17__hash_value_typeIS6_NS_15__list_iteratorINS_4pairIS6_iEEPvEEEENS_4hashIS6_EENS_8equal_toIS6_EELb1EEclB7v160006ERKS6_, symObjAddr: 0x13918, symBinAddr: 0x1000177F8, symSize: 0x2C }
  - { offsetInCU: 0x2B54B, offset: 0x2B54B, size: 0x8, addend: 0x0, symName: __ZNKSt3__112__hash_tableINS_17__hash_value_typeINS_12basic_stringIcNS_11char_traitsIcEENS_9allocatorIcEEEENS_15__list_iteratorINS_4pairIS7_iEEPvEEEENS_22__unordered_map_hasherIS7_SD_NS_4hashIS7_EENS_8equal_toIS7_EELb1EEENS_21__unordered_map_equalIS7_SD_SI_SG_Lb1EEENS5_ISD_EEE12bucket_countB7v160006Ev, symObjAddr: 0x13944, symBinAddr: 0x100017824, symSize: 0x28 }
  - { offsetInCU: 0x2B56F, offset: 0x2B56F, size: 0x8, addend: 0x0, symName: __ZNKSt3__110unique_ptrIA_PNS_16__hash_node_baseIPNS_11__hash_nodeINS_17__hash_value_typeINS_12basic_stringIcNS_11char_traitsIcEENS_9allocatorIcEEEENS_15__list_iteratorINS_4pairIS9_iEEPvEEEESD_EEEENS_25__bucket_list_deallocatorINS7_ISJ_EEEEEixB7v160006Em, symObjAddr: 0x1396C, symBinAddr: 0x10001784C, symSize: 0x34 }
  - { offsetInCU: 0x2B5A3, offset: 0x2B5A3, size: 0x8, addend: 0x0, symName: __ZNKSt3__116__hash_node_baseIPNS_11__hash_nodeINS_17__hash_value_typeINS_12basic_stringIcNS_11char_traitsIcEENS_9allocatorIcEEEENS_15__list_iteratorINS_4pairIS8_iEEPvEEEESC_EEE6__hashB7v160006Ev, symObjAddr: 0x139A0, symBinAddr: 0x100017880, symSize: 0x18 }
  - { offsetInCU: 0x2B5C7, offset: 0x2B5C7, size: 0x8, addend: 0x0, symName: __ZNSt3__112__hash_tableINS_17__hash_value_typeINS_12basic_stringIcNS_11char_traitsIcEENS_9allocatorIcEEEENS_15__list_iteratorINS_4pairIS7_iEEPvEEEENS_22__unordered_map_hasherIS7_SD_NS_4hashIS7_EENS_8equal_toIS7_EELb1EEENS_21__unordered_map_equalIS7_SD_SI_SG_Lb1EEENS5_ISD_EEE6key_eqB7v160006Ev, symObjAddr: 0x139B8, symBinAddr: 0x100017898, symSize: 0x28 }
  - { offsetInCU: 0x2B5EB, offset: 0x2B5EB, size: 0x8, addend: 0x0, symName: __ZNKSt3__121__unordered_map_equalINS_12basic_stringIcNS_11char_traitsIcEENS_9allocatorIcEEEENS_17__hash_value_typeIS6_NS_15__list_iteratorINS_4pairIS6_iEEPvEEEENS_8equal_toIS6_EENS_4hashIS6_EELb1EEclB7v160006ERKSD_RKS6_, symObjAddr: 0x139E0, symBinAddr: 0x1000178C0, symSize: 0x48 }
  - { offsetInCU: 0x2B62E, offset: 0x2B62E, size: 0x8, addend: 0x0, symName: __ZNSt3__115__hash_iteratorIPNS_11__hash_nodeINS_17__hash_value_typeINS_12basic_stringIcNS_11char_traitsIcEENS_9allocatorIcEEEENS_15__list_iteratorINS_4pairIS8_iEEPvEEEESC_EEEC1B7v160006EPNS_16__hash_node_baseISG_EEPKv, symObjAddr: 0x13A28, symBinAddr: 0x100017908, symSize: 0x3C }
  - { offsetInCU: 0x2B675, offset: 0x2B675, size: 0x8, addend: 0x0, symName: __ZNSt3__112__hash_tableINS_17__hash_value_typeINS_12basic_stringIcNS_11char_traitsIcEENS_9allocatorIcEEEENS_15__list_iteratorINS_4pairIS7_iEEPvEEEENS_22__unordered_map_hasherIS7_SD_NS_4hashIS7_EENS_8equal_toIS7_EELb1EEENS_21__unordered_map_equalIS7_SD_SI_SG_Lb1EEENS5_ISD_EEE3endEv, symObjAddr: 0x13A64, symBinAddr: 0x100017944, symSize: 0x30 }
  - { offsetInCU: 0x2B69B, offset: 0x2B69B, size: 0x8, addend: 0x0, symName: __ZNSt3__117__compressed_pairImNS_22__unordered_map_hasherINS_12basic_stringIcNS_11char_traitsIcEENS_9allocatorIcEEEENS_17__hash_value_typeIS7_NS_15__list_iteratorINS_4pairIS7_iEEPvEEEENS_4hashIS7_EENS_8equal_toIS7_EELb1EEEE6secondB7v160006Ev, symObjAddr: 0x13A94, symBinAddr: 0x100017974, symSize: 0x24 }
  - { offsetInCU: 0x2B6C0, offset: 0x2B6C0, size: 0x8, addend: 0x0, symName: __ZNSt3__122__compressed_pair_elemINS_22__unordered_map_hasherINS_12basic_stringIcNS_11char_traitsIcEENS_9allocatorIcEEEENS_17__hash_value_typeIS7_NS_15__list_iteratorINS_4pairIS7_iEEPvEEEENS_4hashIS7_EENS_8equal_toIS7_EELb1EEELi1ELb1EE5__getB7v160006Ev, symObjAddr: 0x13AB8, symBinAddr: 0x100017998, symSize: 0x14 }
  - { offsetInCU: 0x2B6E4, offset: 0x2B6E4, size: 0x8, addend: 0x0, symName: __ZNKSt3__110unique_ptrIA_PNS_16__hash_node_baseIPNS_11__hash_nodeINS_17__hash_value_typeINS_12basic_stringIcNS_11char_traitsIcEENS_9allocatorIcEEEENS_15__list_iteratorINS_4pairIS9_iEEPvEEEESD_EEEENS_25__bucket_list_deallocatorINS7_ISJ_EEEEE11get_deleterB7v160006Ev, symObjAddr: 0x13ACC, symBinAddr: 0x1000179AC, symSize: 0x24 }
  - { offsetInCU: 0x2B708, offset: 0x2B708, size: 0x8, addend: 0x0, symName: __ZNKSt3__125__bucket_list_deallocatorINS_9allocatorIPNS_16__hash_node_baseIPNS_11__hash_nodeINS_17__hash_value_typeINS_12basic_stringIcNS_11char_traitsIcEENS1_IcEEEENS_15__list_iteratorINS_4pairIS9_iEEPvEEEESD_EEEEEEE4sizeB7v160006Ev, symObjAddr: 0x13AF0, symBinAddr: 0x1000179D0, symSize: 0x28 }
  - { offsetInCU: 0x2B72C, offset: 0x2B72C, size: 0x8, addend: 0x0, symName: __ZNKSt3__117__compressed_pairIPPNS_16__hash_node_baseIPNS_11__hash_nodeINS_17__hash_value_typeINS_12basic_stringIcNS_11char_traitsIcEENS_9allocatorIcEEEENS_15__list_iteratorINS_4pairIS9_iEEPvEEEESD_EEEENS_25__bucket_list_deallocatorINS7_ISJ_EEEEE6secondB7v160006Ev, symObjAddr: 0x13B18, symBinAddr: 0x1000179F8, symSize: 0x28 }
  - { offsetInCU: 0x2B751, offset: 0x2B751, size: 0x8, addend: 0x0, symName: __ZNKSt3__122__compressed_pair_elemINS_25__bucket_list_deallocatorINS_9allocatorIPNS_16__hash_node_baseIPNS_11__hash_nodeINS_17__hash_value_typeINS_12basic_stringIcNS_11char_traitsIcEENS2_IcEEEENS_15__list_iteratorINS_4pairISA_iEEPvEEEESE_EEEEEEEELi1ELb0EE5__getB7v160006Ev, symObjAddr: 0x13B40, symBinAddr: 0x100017A20, symSize: 0x14 }
  - { offsetInCU: 0x2B775, offset: 0x2B775, size: 0x8, addend: 0x0, symName: __ZNKSt3__117__compressed_pairImNS_9allocatorIPNS_16__hash_node_baseIPNS_11__hash_nodeINS_17__hash_value_typeINS_12basic_stringIcNS_11char_traitsIcEENS1_IcEEEENS_15__list_iteratorINS_4pairIS9_iEEPvEEEESD_EEEEEEE5firstB7v160006Ev, symObjAddr: 0x13B54, symBinAddr: 0x100017A34, symSize: 0x24 }
  - { offsetInCU: 0x2B799, offset: 0x2B799, size: 0x8, addend: 0x0, symName: __ZNKSt3__117__compressed_pairIPPNS_16__hash_node_baseIPNS_11__hash_nodeINS_17__hash_value_typeINS_12basic_stringIcNS_11char_traitsIcEENS_9allocatorIcEEEENS_15__list_iteratorINS_4pairIS9_iEEPvEEEESD_EEEENS_25__bucket_list_deallocatorINS7_ISJ_EEEEE5firstB7v160006Ev, symObjAddr: 0x13B78, symBinAddr: 0x100017A58, symSize: 0x24 }
  - { offsetInCU: 0x2B7BE, offset: 0x2B7BE, size: 0x8, addend: 0x0, symName: __ZNKSt3__122__compressed_pair_elemIPPNS_16__hash_node_baseIPNS_11__hash_nodeINS_17__hash_value_typeINS_12basic_stringIcNS_11char_traitsIcEENS_9allocatorIcEEEENS_15__list_iteratorINS_4pairIS9_iEEPvEEEESD_EEEELi0ELb0EE5__getB7v160006Ev, symObjAddr: 0x13B9C, symBinAddr: 0x100017A7C, symSize: 0x14 }
  - { offsetInCU: 0x2B7E2, offset: 0x2B7E2, size: 0x8, addend: 0x0, symName: __ZNSt3__117__compressed_pairIfNS_21__unordered_map_equalINS_12basic_stringIcNS_11char_traitsIcEENS_9allocatorIcEEEENS_17__hash_value_typeIS7_NS_15__list_iteratorINS_4pairIS7_iEEPvEEEENS_8equal_toIS7_EENS_4hashIS7_EELb1EEEE6secondB7v160006Ev, symObjAddr: 0x13BB0, symBinAddr: 0x100017A90, symSize: 0x24 }
  - { offsetInCU: 0x2B807, offset: 0x2B807, size: 0x8, addend: 0x0, symName: __ZNSt3__122__compressed_pair_elemINS_21__unordered_map_equalINS_12basic_stringIcNS_11char_traitsIcEENS_9allocatorIcEEEENS_17__hash_value_typeIS7_NS_15__list_iteratorINS_4pairIS7_iEEPvEEEENS_8equal_toIS7_EENS_4hashIS7_EELb1EEELi1ELb1EE5__getB7v160006Ev, symObjAddr: 0x13BD4, symBinAddr: 0x100017AB4, symSize: 0x14 }
  - { offsetInCU: 0x2B82B, offset: 0x2B82B, size: 0x8, addend: 0x0, symName: __ZNKSt3__117__hash_value_typeINS_12basic_stringIcNS_11char_traitsIcEENS_9allocatorIcEEEENS_15__list_iteratorINS_4pairIS6_iEEPvEEE11__get_valueB7v160006Ev, symObjAddr: 0x13BE8, symBinAddr: 0x100017AC8, symSize: 0x24 }
  - { offsetInCU: 0x2B850, offset: 0x2B850, size: 0x8, addend: 0x0, symName: __ZNSt3__115__hash_iteratorIPNS_11__hash_nodeINS_17__hash_value_typeINS_12basic_stringIcNS_11char_traitsIcEENS_9allocatorIcEEEENS_15__list_iteratorINS_4pairIS8_iEEPvEEEESC_EEEC2B7v160006EPNS_16__hash_node_baseISG_EEPKv, symObjAddr: 0x13C44, symBinAddr: 0x100017B24, symSize: 0x24 }
  - { offsetInCU: 0x2B897, offset: 0x2B897, size: 0x8, addend: 0x0, symName: __ZNSt3__119__hash_map_iteratorINS_15__hash_iteratorIPNS_11__hash_nodeINS_17__hash_value_typeINS_12basic_stringIcNS_11char_traitsIcEENS_9allocatorIcEEEENS_15__list_iteratorINS_4pairIS9_iEEPvEEEESD_EEEEEC2B7v160006ESI_, symObjAddr: 0x13C68, symBinAddr: 0x100017B48, symSize: 0x20 }
  - { offsetInCU: 0x2B8CF, offset: 0x2B8CF, size: 0x8, addend: 0x0, symName: __ZNSt3__115__list_iteratorINS_4pairINS_12basic_stringIcNS_11char_traitsIcEENS_9allocatorIcEEEEiEEPvEC1B7v160006EPNS_16__list_node_baseIS8_S9_EEPKv, symObjAddr: 0x13CB8, symBinAddr: 0x100017B98, symSize: 0x3C }
  - { offsetInCU: 0x2B916, offset: 0x2B916, size: 0x8, addend: 0x0, symName: __ZNSt3__115__list_iteratorINS_4pairINS_12basic_stringIcNS_11char_traitsIcEENS_9allocatorIcEEEEiEEPvEC2B7v160006EPNS_16__list_node_baseIS8_S9_EEPKv, symObjAddr: 0x13CF4, symBinAddr: 0x100017BD4, symSize: 0x24 }
  - { offsetInCU: 0x2B95D, offset: 0x2B95D, size: 0x8, addend: 0x0, symName: __ZNSt3__114pointer_traitsIPNS_4pairIKNS_12basic_stringIcNS_11char_traitsIcEENS_9allocatorIcEEEENS_15__list_iteratorINS1_IS7_iEEPvEEEEE10pointer_toB7v160006ERSD_, symObjAddr: 0x13D18, symBinAddr: 0x100017BF8, symSize: 0x14 }
  - { offsetInCU: 0x2B97F, offset: 0x2B97F, size: 0x8, addend: 0x0, symName: __ZNKSt3__115__hash_iteratorIPNS_11__hash_nodeINS_17__hash_value_typeINS_12basic_stringIcNS_11char_traitsIcEENS_9allocatorIcEEEENS_15__list_iteratorINS_4pairIS8_iEEPvEEEESC_EEEptB7v160006Ev, symObjAddr: 0x13D2C, symBinAddr: 0x100017C0C, symSize: 0x30 }
  - { offsetInCU: 0x2B9A4, offset: 0x2B9A4, size: 0x8, addend: 0x0, symName: __ZNSt3__114pointer_traitsIPNS_17__hash_value_typeINS_12basic_stringIcNS_11char_traitsIcEENS_9allocatorIcEEEENS_15__list_iteratorINS_4pairIS7_iEEPvEEEEE10pointer_toB7v160006ERSD_, symObjAddr: 0x13D5C, symBinAddr: 0x100017C3C, symSize: 0x14 }
  - { offsetInCU: 0x2B9C7, offset: 0x2B9C7, size: 0x8, addend: 0x0, symName: __ZNSt3__121__list_const_iteratorINS_4pairINS_12basic_stringIcNS_11char_traitsIcEENS_9allocatorIcEEEEiEEPvEC2B7v160006ERKNS_15__list_iteratorIS8_S9_EE, symObjAddr: 0x13D70, symBinAddr: 0x100017C50, symSize: 0x24 }
  - { offsetInCU: 0x2B9FF, offset: 0x2B9FF, size: 0x8, addend: 0x0, symName: __ZNSt3__14pairINS_12basic_stringIcNS_11char_traitsIcEENS_9allocatorIcEEEEiEC2ERKS7_, symObjAddr: 0x13D94, symBinAddr: 0x100017C74, symSize: 0x40 }
  - { offsetInCU: 0x2BA31, offset: 0x2BA31, size: 0x8, addend: 0x0, symName: __ZNSt3__14listINS_4pairINS_12basic_stringIcNS_11char_traitsIcEENS_9allocatorIcEEEEiEENS5_IS8_EEE15__allocate_nodeB7v160006ERNS5_INS_11__list_nodeIS8_PvEEEE, symObjAddr: 0x13DD4, symBinAddr: 0x100017CB4, symSize: 0x70 }
  - { offsetInCU: 0x2BA74, offset: 0x2BA74, size: 0x8, addend: 0x0, symName: __ZNSt3__116allocator_traitsINS_9allocatorINS_11__list_nodeINS_4pairINS_12basic_stringIcNS_11char_traitsIcEENS1_IcEEEEiEEPvEEEEE9constructB7v160006IS9_JRKS9_EvvEEvRSC_PT_DpOT0_, symObjAddr: 0x13E44, symBinAddr: 0x100017D24, symSize: 0x30 }
  - { offsetInCU: 0x2BAC8, offset: 0x2BAC8, size: 0x8, addend: 0x0, symName: __ZNKSt3__110unique_ptrINS_11__list_nodeINS_4pairINS_12basic_stringIcNS_11char_traitsIcEENS_9allocatorIcEEEEiEEPvEENS_22__allocator_destructorINS6_ISB_EEEEEptB7v160006Ev, symObjAddr: 0x13E74, symBinAddr: 0x100017D54, symSize: 0x28 }
  - { offsetInCU: 0x2BAED, offset: 0x2BAED, size: 0x8, addend: 0x0, symName: __ZNSt3__14listINS_4pairINS_12basic_stringIcNS_11char_traitsIcEENS_9allocatorIcEEEEiEENS5_IS8_EEE20__link_nodes_at_backEPNS_16__list_node_baseIS8_PvEESE_, symObjAddr: 0x13E9C, symBinAddr: 0x100017D7C, symSize: 0x60 }
  - { offsetInCU: 0x2BB31, offset: 0x2BB31, size: 0x8, addend: 0x0, symName: __ZNKSt3__110unique_ptrINS_11__list_nodeINS_4pairINS_12basic_stringIcNS_11char_traitsIcEENS_9allocatorIcEEEEiEEPvEENS_22__allocator_destructorINS6_ISB_EEEEE3getB7v160006Ev, symObjAddr: 0x13EFC, symBinAddr: 0x100017DDC, symSize: 0x28 }
  - { offsetInCU: 0x2BB55, offset: 0x2BB55, size: 0x8, addend: 0x0, symName: __ZNSt3__111__list_nodeINS_4pairINS_12basic_stringIcNS_11char_traitsIcEENS_9allocatorIcEEEEiEEPvE9__as_linkB7v160006Ev, symObjAddr: 0x13F24, symBinAddr: 0x100017E04, symSize: 0x24 }
  - { offsetInCU: 0x2BB79, offset: 0x2BB79, size: 0x8, addend: 0x0, symName: __ZNSt3__110unique_ptrINS_11__list_nodeINS_4pairINS_12basic_stringIcNS_11char_traitsIcEENS_9allocatorIcEEEEiEEPvEENS_22__allocator_destructorINS6_ISB_EEEEE7releaseB7v160006Ev, symObjAddr: 0x13F48, symBinAddr: 0x100017E28, symSize: 0x44 }
  - { offsetInCU: 0x2BBAD, offset: 0x2BBAD, size: 0x8, addend: 0x0, symName: __ZNSt3__110unique_ptrINS_11__list_nodeINS_4pairINS_12basic_stringIcNS_11char_traitsIcEENS_9allocatorIcEEEEiEEPvEENS_22__allocator_destructorINS6_ISB_EEEEED1B7v160006Ev, symObjAddr: 0x13F8C, symBinAddr: 0x100017E6C, symSize: 0x2C }
  - { offsetInCU: 0x2BBD6, offset: 0x2BBD6, size: 0x8, addend: 0x0, symName: __ZNSt3__116allocator_traitsINS_9allocatorINS_11__list_nodeINS_4pairINS_12basic_stringIcNS_11char_traitsIcEENS1_IcEEEEiEEPvEEEEE8allocateB7v160006ERSC_m, symObjAddr: 0x13FB8, symBinAddr: 0x100017E98, symSize: 0x2C }
  - { offsetInCU: 0x2BC09, offset: 0x2BC09, size: 0x8, addend: 0x0, symName: __ZNSt3__122__allocator_destructorINS_9allocatorINS_11__list_nodeINS_4pairINS_12basic_stringIcNS_11char_traitsIcEENS1_IcEEEEiEEPvEEEEEC1B7v160006ERSC_m, symObjAddr: 0x13FE4, symBinAddr: 0x100017EC4, symSize: 0x3C }
  - { offsetInCU: 0x2BC53, offset: 0x2BC53, size: 0x8, addend: 0x0, symName: __ZNSt3__110unique_ptrINS_11__list_nodeINS_4pairINS_12basic_stringIcNS_11char_traitsIcEENS_9allocatorIcEEEEiEEPvEENS_22__allocator_destructorINS6_ISB_EEEEEC1B7v160006ILb1EvEEPSB_NS_16__dependent_typeINS_27__unique_ptr_deleter_sfinaeISE_EEXT_EE20__good_rval_ref_typeE, symObjAddr: 0x14020, symBinAddr: 0x100017F00, symSize: 0x3C }
  - { offsetInCU: 0x2BCA2, offset: 0x2BCA2, size: 0x8, addend: 0x0, symName: __ZNSt3__19allocatorINS_11__list_nodeINS_4pairINS_12basic_stringIcNS_11char_traitsIcEENS0_IcEEEEiEEPvEEE8allocateB7v160006Em, symObjAddr: 0x1405C, symBinAddr: 0x100017F3C, symSize: 0x5C }
  - { offsetInCU: 0x2BCDF, offset: 0x2BCDF, size: 0x8, addend: 0x0, symName: __ZNSt3__116allocator_traitsINS_9allocatorINS_11__list_nodeINS_4pairINS_12basic_stringIcNS_11char_traitsIcEENS1_IcEEEEiEEPvEEEEE8max_sizeB7v160006ISC_vvEEmRKSC_, symObjAddr: 0x140B8, symBinAddr: 0x100017F98, symSize: 0x28 }
  - { offsetInCU: 0x2BD0B, offset: 0x2BD0B, size: 0x8, addend: 0x0, symName: __ZNSt3__122__allocator_destructorINS_9allocatorINS_11__list_nodeINS_4pairINS_12basic_stringIcNS_11char_traitsIcEENS1_IcEEEEiEEPvEEEEEC2B7v160006ERSC_m, symObjAddr: 0x140E0, symBinAddr: 0x100017FC0, symSize: 0x2C }
  - { offsetInCU: 0x2BD50, offset: 0x2BD50, size: 0x8, addend: 0x0, symName: __ZNSt3__110unique_ptrINS_11__list_nodeINS_4pairINS_12basic_stringIcNS_11char_traitsIcEENS_9allocatorIcEEEEiEEPvEENS_22__allocator_destructorINS6_ISB_EEEEEC2B7v160006ILb1EvEEPSB_NS_16__dependent_typeINS_27__unique_ptr_deleter_sfinaeISE_EEXT_EE20__good_rval_ref_typeE, symObjAddr: 0x1410C, symBinAddr: 0x100017FEC, symSize: 0x48 }
  - { offsetInCU: 0x2BDA0, offset: 0x2BDA0, size: 0x8, addend: 0x0, symName: __ZNSt3__117__compressed_pairIPNS_11__list_nodeINS_4pairINS_12basic_stringIcNS_11char_traitsIcEENS_9allocatorIcEEEEiEEPvEENS_22__allocator_destructorINS6_ISB_EEEEEC1B7v160006IRSC_SF_EEOT_OT0_, symObjAddr: 0x14154, symBinAddr: 0x100018034, symSize: 0x3C }
  - { offsetInCU: 0x2BDF7, offset: 0x2BDF7, size: 0x8, addend: 0x0, symName: __ZNSt3__117__compressed_pairIPNS_11__list_nodeINS_4pairINS_12basic_stringIcNS_11char_traitsIcEENS_9allocatorIcEEEEiEEPvEENS_22__allocator_destructorINS6_ISB_EEEEEC2B7v160006IRSC_SF_EEOT_OT0_, symObjAddr: 0x14190, symBinAddr: 0x100018070, symSize: 0x48 }
  - { offsetInCU: 0x2BE4E, offset: 0x2BE4E, size: 0x8, addend: 0x0, symName: __ZNSt3__122__compressed_pair_elemIPNS_11__list_nodeINS_4pairINS_12basic_stringIcNS_11char_traitsIcEENS_9allocatorIcEEEEiEEPvEELi0ELb0EEC2B7v160006IRSC_vEEOT_, symObjAddr: 0x141D8, symBinAddr: 0x1000180B8, symSize: 0x24 }
  - { offsetInCU: 0x2BE8F, offset: 0x2BE8F, size: 0x8, addend: 0x0, symName: __ZNSt3__122__compressed_pair_elemINS_22__allocator_destructorINS_9allocatorINS_11__list_nodeINS_4pairINS_12basic_stringIcNS_11char_traitsIcEENS2_IcEEEEiEEPvEEEEEELi1ELb0EEC2B7v160006ISE_vEEOT_, symObjAddr: 0x141FC, symBinAddr: 0x1000180DC, symSize: 0x24 }
  - { offsetInCU: 0x2BECF, offset: 0x2BECF, size: 0x8, addend: 0x0, symName: __ZNKSt3__117__compressed_pairIPNS_11__list_nodeINS_4pairINS_12basic_stringIcNS_11char_traitsIcEENS_9allocatorIcEEEEiEEPvEENS_22__allocator_destructorINS6_ISB_EEEEE5firstB7v160006Ev, symObjAddr: 0x1425C, symBinAddr: 0x10001813C, symSize: 0x24 }
  - { offsetInCU: 0x2BEF4, offset: 0x2BEF4, size: 0x8, addend: 0x0, symName: __ZNKSt3__122__compressed_pair_elemIPNS_11__list_nodeINS_4pairINS_12basic_stringIcNS_11char_traitsIcEENS_9allocatorIcEEEEiEEPvEELi0ELb0EE5__getB7v160006Ev, symObjAddr: 0x14280, symBinAddr: 0x100018160, symSize: 0x14 }
  - { offsetInCU: 0x2BF18, offset: 0x2BF18, size: 0x8, addend: 0x0, symName: __ZNSt3__117__compressed_pairIPNS_11__list_nodeINS_4pairINS_12basic_stringIcNS_11char_traitsIcEENS_9allocatorIcEEEEiEEPvEENS_22__allocator_destructorINS6_ISB_EEEEE5firstB7v160006Ev, symObjAddr: 0x14294, symBinAddr: 0x100018174, symSize: 0x24 }
  - { offsetInCU: 0x2BF3D, offset: 0x2BF3D, size: 0x8, addend: 0x0, symName: __ZNSt3__122__compressed_pair_elemIPNS_11__list_nodeINS_4pairINS_12basic_stringIcNS_11char_traitsIcEENS_9allocatorIcEEEEiEEPvEELi0ELb0EE5__getB7v160006Ev, symObjAddr: 0x142B8, symBinAddr: 0x100018198, symSize: 0x14 }
  - { offsetInCU: 0x2BF62, offset: 0x2BF62, size: 0x8, addend: 0x0, symName: __ZNSt3__110unique_ptrINS_11__list_nodeINS_4pairINS_12basic_stringIcNS_11char_traitsIcEENS_9allocatorIcEEEEiEEPvEENS_22__allocator_destructorINS6_ISB_EEEEED2B7v160006Ev, symObjAddr: 0x142CC, symBinAddr: 0x1000181AC, symSize: 0x30 }
  - { offsetInCU: 0x2BF8A, offset: 0x2BF8A, size: 0x8, addend: 0x0, symName: __ZNSt3__110unique_ptrINS_11__list_nodeINS_4pairINS_12basic_stringIcNS_11char_traitsIcEENS_9allocatorIcEEEEiEEPvEENS_22__allocator_destructorINS6_ISB_EEEEE5resetB7v160006EPSB_, symObjAddr: 0x142FC, symBinAddr: 0x1000181DC, symSize: 0x78 }
  - { offsetInCU: 0x2BFCC, offset: 0x2BFCC, size: 0x8, addend: 0x0, symName: __ZNSt3__117__compressed_pairIPNS_11__list_nodeINS_4pairINS_12basic_stringIcNS_11char_traitsIcEENS_9allocatorIcEEEEiEEPvEENS_22__allocator_destructorINS6_ISB_EEEEE6secondB7v160006Ev, symObjAddr: 0x14374, symBinAddr: 0x100018254, symSize: 0x28 }
  - { offsetInCU: 0x2BFF0, offset: 0x2BFF0, size: 0x8, addend: 0x0, symName: __ZNSt3__122__allocator_destructorINS_9allocatorINS_11__list_nodeINS_4pairINS_12basic_stringIcNS_11char_traitsIcEENS1_IcEEEEiEEPvEEEEEclB7v160006EPSB_, symObjAddr: 0x1439C, symBinAddr: 0x10001827C, symSize: 0x34 }
  - { offsetInCU: 0x2C023, offset: 0x2C023, size: 0x8, addend: 0x0, symName: __ZNSt3__122__compressed_pair_elemINS_22__allocator_destructorINS_9allocatorINS_11__list_nodeINS_4pairINS_12basic_stringIcNS_11char_traitsIcEENS2_IcEEEEiEEPvEEEEEELi1ELb0EE5__getB7v160006Ev, symObjAddr: 0x143D0, symBinAddr: 0x1000182B0, symSize: 0x14 }
  - { offsetInCU: 0x2C048, offset: 0x2C048, size: 0x8, addend: 0x0, symName: __ZNSt3__115__list_iteratorINS_4pairINS_12basic_stringIcNS_11char_traitsIcEENS_9allocatorIcEEEEiEEPvEppB7v160006Ev, symObjAddr: 0x144D8, symBinAddr: 0x1000183B8, symSize: 0x20 }
  - { offsetInCU: 0x2C06D, offset: 0x2C06D, size: 0x8, addend: 0x0, symName: __ZNSt3__115__list_iteratorINS_4pairINS_12basic_stringIcNS_11char_traitsIcEENS_9allocatorIcEEEEiEEPvEmmB7v160006Ev, symObjAddr: 0x144F8, symBinAddr: 0x1000183D8, symSize: 0x20 }
  - { offsetInCU: 0x2C091, offset: 0x2C091, size: 0x8, addend: 0x0, symName: __ZNSt3__110__list_impINS_4pairINS_12basic_stringIcNS_11char_traitsIcEENS_9allocatorIcEEEEiEENS5_IS8_EEE3endB7v160006Ev, symObjAddr: 0x14518, symBinAddr: 0x1000183F8, symSize: 0x3C }
  - { offsetInCU: 0x2C0B6, offset: 0x2C0B6, size: 0x8, addend: 0x0, symName: __ZNSt3__114pointer_traitsIPNS_4pairINS_12basic_stringIcNS_11char_traitsIcEENS_9allocatorIcEEEEiEEE10pointer_toB7v160006ERS8_, symObjAddr: 0x14554, symBinAddr: 0x100018434, symSize: 0x14 }
  - { offsetInCU: 0x2C0D8, offset: 0x2C0D8, size: 0x8, addend: 0x0, symName: __ZNKSt3__113unordered_mapINS_12basic_stringIcNS_11char_traitsIcEENS_9allocatorIcEEEENS_15__list_iteratorINS_4pairIS6_iEEPvEENS_4hashIS6_EENS_8equal_toIS6_EENS4_INS8_IKS6_SB_EEEEE4sizeB7v160006Ev, symObjAddr: 0x14568, symBinAddr: 0x100018448, symSize: 0x24 }
  - { offsetInCU: 0x2C0FC, offset: 0x2C0FC, size: 0x8, addend: 0x0, symName: __ZNSt3__113unordered_mapINS_12basic_stringIcNS_11char_traitsIcEENS_9allocatorIcEEEENS_15__list_iteratorINS_4pairIS6_iEEPvEENS_4hashIS6_EENS_8equal_toIS6_EENS4_INS8_IKS6_SB_EEEEE5eraseB7v160006ERSG_, symObjAddr: 0x1458C, symBinAddr: 0x10001846C, symSize: 0x2C }
  - { offsetInCU: 0x2C12F, offset: 0x2C12F, size: 0x8, addend: 0x0, symName: __ZNSt3__14listINS_4pairINS_12basic_stringIcNS_11char_traitsIcEENS_9allocatorIcEEEEiEENS5_IS8_EEE5frontB7v160006Ev, symObjAddr: 0x145B8, symBinAddr: 0x100018498, symSize: 0x2C }
  - { offsetInCU: 0x2C153, offset: 0x2C153, size: 0x8, addend: 0x0, symName: __ZNSt3__14listINS_4pairINS_12basic_stringIcNS_11char_traitsIcEENS_9allocatorIcEEEEiEENS5_IS8_EEE5beginB7v160006Ev, symObjAddr: 0x145E4, symBinAddr: 0x1000184C4, symSize: 0x2C }
  - { offsetInCU: 0x2C178, offset: 0x2C178, size: 0x8, addend: 0x0, symName: __ZNSt3__14listINS_4pairINS_12basic_stringIcNS_11char_traitsIcEENS_9allocatorIcEEEEiEENS5_IS8_EEE9push_backEOS8_, symObjAddr: 0x14610, symBinAddr: 0x1000184F0, symSize: 0xEC }
  - { offsetInCU: 0x2C1CC, offset: 0x2C1CC, size: 0x8, addend: 0x0, symName: __ZNSt3__14pairINS_12basic_stringIcNS_11char_traitsIcEENS_9allocatorIcEEEEiEC1B7v160006ILb1ELPv0EEERKS6_RKi, symObjAddr: 0x146FC, symBinAddr: 0x1000185DC, symSize: 0x3C }
  - { offsetInCU: 0x2C221, offset: 0x2C221, size: 0x8, addend: 0x0, symName: __ZNSt3__113unordered_mapINS_12basic_stringIcNS_11char_traitsIcEENS_9allocatorIcEEEENS_15__list_iteratorINS_4pairIS6_iEEPvEENS_4hashIS6_EENS_8equal_toIS6_EENS4_INS8_IKS6_SB_EEEEEixERSG_, symObjAddr: 0x14738, symBinAddr: 0x100018618, symSize: 0x80 }
  - { offsetInCU: 0x2C256, offset: 0x2C256, size: 0x8, addend: 0x0, symName: __ZNKSt3__112__hash_tableINS_17__hash_value_typeINS_12basic_stringIcNS_11char_traitsIcEENS_9allocatorIcEEEENS_15__list_iteratorINS_4pairIS7_iEEPvEEEENS_22__unordered_map_hasherIS7_SD_NS_4hashIS7_EENS_8equal_toIS7_EELb1EEENS_21__unordered_map_equalIS7_SD_SI_SG_Lb1EEENS5_ISD_EEE4sizeB7v160006Ev, symObjAddr: 0x147B8, symBinAddr: 0x100018698, symSize: 0x2C }
  - { offsetInCU: 0x2C27A, offset: 0x2C27A, size: 0x8, addend: 0x0, symName: __ZNKSt3__117__compressed_pairImNS_22__unordered_map_hasherINS_12basic_stringIcNS_11char_traitsIcEENS_9allocatorIcEEEENS_17__hash_value_typeIS7_NS_15__list_iteratorINS_4pairIS7_iEEPvEEEENS_4hashIS7_EENS_8equal_toIS7_EELb1EEEE5firstB7v160006Ev, symObjAddr: 0x147E4, symBinAddr: 0x1000186C4, symSize: 0x24 }
  - { offsetInCU: 0x2C29F, offset: 0x2C29F, size: 0x8, addend: 0x0, symName: __ZNSt3__112__hash_tableINS_17__hash_value_typeINS_12basic_stringIcNS_11char_traitsIcEENS_9allocatorIcEEEENS_15__list_iteratorINS_4pairIS7_iEEPvEEEENS_22__unordered_map_hasherIS7_SD_NS_4hashIS7_EENS_8equal_toIS7_EELb1EEENS_21__unordered_map_equalIS7_SD_SI_SG_Lb1EEENS5_ISD_EEE14__erase_uniqueIS7_EEmRKT_, symObjAddr: 0x14808, symBinAddr: 0x1000186E8, symSize: 0x98 }
  - { offsetInCU: 0x2C2ED, offset: 0x2C2ED, size: 0x8, addend: 0x0, symName: __ZNSt3__112__hash_tableINS_17__hash_value_typeINS_12basic_stringIcNS_11char_traitsIcEENS_9allocatorIcEEEENS_15__list_iteratorINS_4pairIS7_iEEPvEEEENS_22__unordered_map_hasherIS7_SD_NS_4hashIS7_EENS_8equal_toIS7_EELb1EEENS_21__unordered_map_equalIS7_SD_SI_SG_Lb1EEENS5_ISD_EEE5eraseENS_21__hash_const_iteratorIPNS_11__hash_nodeISD_SB_EEEE, symObjAddr: 0x148A0, symBinAddr: 0x100018780, symSize: 0x70 }
  - { offsetInCU: 0x2C341, offset: 0x2C341, size: 0x8, addend: 0x0, symName: __ZNSt3__121__hash_const_iteratorIPNS_11__hash_nodeINS_17__hash_value_typeINS_12basic_stringIcNS_11char_traitsIcEENS_9allocatorIcEEEENS_15__list_iteratorINS_4pairIS8_iEEPvEEEESC_EEEC1B7v160006ERKNS_15__hash_iteratorISG_EE, symObjAddr: 0x14910, symBinAddr: 0x1000187F0, symSize: 0x34 }
  - { offsetInCU: 0x2C379, offset: 0x2C379, size: 0x8, addend: 0x0, symName: __ZNSt3__115__hash_iteratorIPNS_11__hash_nodeINS_17__hash_value_typeINS_12basic_stringIcNS_11char_traitsIcEENS_9allocatorIcEEEENS_15__list_iteratorINS_4pairIS8_iEEPvEEEESC_EEEppB7v160006Ev, symObjAddr: 0x14944, symBinAddr: 0x100018824, symSize: 0x20 }
  - { offsetInCU: 0x2C39E, offset: 0x2C39E, size: 0x8, addend: 0x0, symName: __ZNSt3__112__hash_tableINS_17__hash_value_typeINS_12basic_stringIcNS_11char_traitsIcEENS_9allocatorIcEEEENS_15__list_iteratorINS_4pairIS7_iEEPvEEEENS_22__unordered_map_hasherIS7_SD_NS_4hashIS7_EENS_8equal_toIS7_EELb1EEENS_21__unordered_map_equalIS7_SD_SI_SG_Lb1EEENS5_ISD_EEE6removeENS_21__hash_const_iteratorIPNS_11__hash_nodeISD_SB_EEEE, symObjAddr: 0x14964, symBinAddr: 0x100018844, symSize: 0x220 }
  - { offsetInCU: 0x2C42E, offset: 0x2C42E, size: 0x8, addend: 0x0, symName: __ZNSt3__110unique_ptrINS_11__hash_nodeINS_17__hash_value_typeINS_12basic_stringIcNS_11char_traitsIcEENS_9allocatorIcEEEENS_15__list_iteratorINS_4pairIS8_iEEPvEEEESC_EENS_22__hash_node_destructorINS6_ISF_EEEEED1B7v160006Ev, symObjAddr: 0x14B84, symBinAddr: 0x100018A64, symSize: 0x2C }
  - { offsetInCU: 0x2C456, offset: 0x2C456, size: 0x8, addend: 0x0, symName: __ZNSt3__116__hash_node_baseIPNS_11__hash_nodeINS_17__hash_value_typeINS_12basic_stringIcNS_11char_traitsIcEENS_9allocatorIcEEEENS_15__list_iteratorINS_4pairIS8_iEEPvEEEESC_EEE5__ptrB7v160006Ev, symObjAddr: 0x14BB0, symBinAddr: 0x100018A90, symSize: 0x24 }
  - { offsetInCU: 0x2C47A, offset: 0x2C47A, size: 0x8, addend: 0x0, symName: __ZNSt3__112__hash_tableINS_17__hash_value_typeINS_12basic_stringIcNS_11char_traitsIcEENS_9allocatorIcEEEENS_15__list_iteratorINS_4pairIS7_iEEPvEEEENS_22__unordered_map_hasherIS7_SD_NS_4hashIS7_EENS_8equal_toIS7_EELb1EEENS_21__unordered_map_equalIS7_SD_SI_SG_Lb1EEENS5_ISD_EEE4sizeB7v160006Ev, symObjAddr: 0x14BD4, symBinAddr: 0x100018AB4, symSize: 0x28 }
  - { offsetInCU: 0x2C49F, offset: 0x2C49F, size: 0x8, addend: 0x0, symName: __ZNSt3__122__hash_node_destructorINS_9allocatorINS_11__hash_nodeINS_17__hash_value_typeINS_12basic_stringIcNS_11char_traitsIcEENS1_IcEEEENS_15__list_iteratorINS_4pairIS8_iEEPvEEEESC_EEEEEC1B7v160006ERSG_b, symObjAddr: 0x14BFC, symBinAddr: 0x100018ADC, symSize: 0x48 }
  - { offsetInCU: 0x2C4EB, offset: 0x2C4EB, size: 0x8, addend: 0x0, symName: __ZNSt3__110unique_ptrINS_11__hash_nodeINS_17__hash_value_typeINS_12basic_stringIcNS_11char_traitsIcEENS_9allocatorIcEEEENS_15__list_iteratorINS_4pairIS8_iEEPvEEEESC_EENS_22__hash_node_destructorINS6_ISF_EEEEEC1B7v160006ILb1EvEEPSF_NS_16__dependent_typeINS_27__unique_ptr_deleter_sfinaeISI_EEXT_EE20__good_rval_ref_typeE, symObjAddr: 0x14C44, symBinAddr: 0x100018B24, symSize: 0x3C }
  - { offsetInCU: 0x2C53A, offset: 0x2C53A, size: 0x8, addend: 0x0, symName: __ZNSt3__117__compressed_pairImNS_22__unordered_map_hasherINS_12basic_stringIcNS_11char_traitsIcEENS_9allocatorIcEEEENS_17__hash_value_typeIS7_NS_15__list_iteratorINS_4pairIS7_iEEPvEEEENS_4hashIS7_EENS_8equal_toIS7_EELb1EEEE5firstB7v160006Ev, symObjAddr: 0x14C80, symBinAddr: 0x100018B60, symSize: 0x24 }
  - { offsetInCU: 0x2C55F, offset: 0x2C55F, size: 0x8, addend: 0x0, symName: __ZNSt3__122__hash_node_destructorINS_9allocatorINS_11__hash_nodeINS_17__hash_value_typeINS_12basic_stringIcNS_11char_traitsIcEENS1_IcEEEENS_15__list_iteratorINS_4pairIS8_iEEPvEEEESC_EEEEEC2B7v160006ERSG_b, symObjAddr: 0x14CA4, symBinAddr: 0x100018B84, symSize: 0x38 }
  - { offsetInCU: 0x2C5A6, offset: 0x2C5A6, size: 0x8, addend: 0x0, symName: __ZNSt3__110unique_ptrINS_11__hash_nodeINS_17__hash_value_typeINS_12basic_stringIcNS_11char_traitsIcEENS_9allocatorIcEEEENS_15__list_iteratorINS_4pairIS8_iEEPvEEEESC_EENS_22__hash_node_destructorINS6_ISF_EEEEEC2B7v160006ILb1EvEEPSF_NS_16__dependent_typeINS_27__unique_ptr_deleter_sfinaeISI_EEXT_EE20__good_rval_ref_typeE, symObjAddr: 0x14CDC, symBinAddr: 0x100018BBC, symSize: 0x48 }
  - { offsetInCU: 0x2C5F6, offset: 0x2C5F6, size: 0x8, addend: 0x0, symName: __ZNSt3__117__compressed_pairIPNS_11__hash_nodeINS_17__hash_value_typeINS_12basic_stringIcNS_11char_traitsIcEENS_9allocatorIcEEEENS_15__list_iteratorINS_4pairIS8_iEEPvEEEESC_EENS_22__hash_node_destructorINS6_ISF_EEEEEC1B7v160006IRSG_SJ_EEOT_OT0_, symObjAddr: 0x14D24, symBinAddr: 0x100018C04, symSize: 0x3C }
  - { offsetInCU: 0x2C64D, offset: 0x2C64D, size: 0x8, addend: 0x0, symName: __ZNSt3__117__compressed_pairIPNS_11__hash_nodeINS_17__hash_value_typeINS_12basic_stringIcNS_11char_traitsIcEENS_9allocatorIcEEEENS_15__list_iteratorINS_4pairIS8_iEEPvEEEESC_EENS_22__hash_node_destructorINS6_ISF_EEEEEC2B7v160006IRSG_SJ_EEOT_OT0_, symObjAddr: 0x14D60, symBinAddr: 0x100018C40, symSize: 0x48 }
  - { offsetInCU: 0x2C6A4, offset: 0x2C6A4, size: 0x8, addend: 0x0, symName: __ZNSt3__122__compressed_pair_elemIPNS_11__hash_nodeINS_17__hash_value_typeINS_12basic_stringIcNS_11char_traitsIcEENS_9allocatorIcEEEENS_15__list_iteratorINS_4pairIS8_iEEPvEEEESC_EELi0ELb0EEC2B7v160006IRSG_vEEOT_, symObjAddr: 0x14DA8, symBinAddr: 0x100018C88, symSize: 0x24 }
  - { offsetInCU: 0x2C6E5, offset: 0x2C6E5, size: 0x8, addend: 0x0, symName: __ZNSt3__122__compressed_pair_elemINS_22__hash_node_destructorINS_9allocatorINS_11__hash_nodeINS_17__hash_value_typeINS_12basic_stringIcNS_11char_traitsIcEENS2_IcEEEENS_15__list_iteratorINS_4pairIS9_iEEPvEEEESD_EEEEEELi1ELb0EEC2B7v160006ISI_vEEOT_, symObjAddr: 0x14DCC, symBinAddr: 0x100018CAC, symSize: 0x24 }
  - { offsetInCU: 0x2C726, offset: 0x2C726, size: 0x8, addend: 0x0, symName: __ZNSt3__110unique_ptrINS_11__hash_nodeINS_17__hash_value_typeINS_12basic_stringIcNS_11char_traitsIcEENS_9allocatorIcEEEENS_15__list_iteratorINS_4pairIS8_iEEPvEEEESC_EENS_22__hash_node_destructorINS6_ISF_EEEEED2B7v160006Ev, symObjAddr: 0x14DF0, symBinAddr: 0x100018CD0, symSize: 0x30 }
  - { offsetInCU: 0x2C74E, offset: 0x2C74E, size: 0x8, addend: 0x0, symName: __ZNSt3__110unique_ptrINS_11__hash_nodeINS_17__hash_value_typeINS_12basic_stringIcNS_11char_traitsIcEENS_9allocatorIcEEEENS_15__list_iteratorINS_4pairIS8_iEEPvEEEESC_EENS_22__hash_node_destructorINS6_ISF_EEEEE5resetB7v160006EPSF_, symObjAddr: 0x14E20, symBinAddr: 0x100018D00, symSize: 0x78 }
  - { offsetInCU: 0x2C790, offset: 0x2C790, size: 0x8, addend: 0x0, symName: __ZNSt3__117__compressed_pairIPNS_11__hash_nodeINS_17__hash_value_typeINS_12basic_stringIcNS_11char_traitsIcEENS_9allocatorIcEEEENS_15__list_iteratorINS_4pairIS8_iEEPvEEEESC_EENS_22__hash_node_destructorINS6_ISF_EEEEE5firstB7v160006Ev, symObjAddr: 0x14E98, symBinAddr: 0x100018D78, symSize: 0x24 }
  - { offsetInCU: 0x2C7B4, offset: 0x2C7B4, size: 0x8, addend: 0x0, symName: __ZNSt3__117__compressed_pairIPNS_11__hash_nodeINS_17__hash_value_typeINS_12basic_stringIcNS_11char_traitsIcEENS_9allocatorIcEEEENS_15__list_iteratorINS_4pairIS8_iEEPvEEEESC_EENS_22__hash_node_destructorINS6_ISF_EEEEE6secondB7v160006Ev, symObjAddr: 0x14EBC, symBinAddr: 0x100018D9C, symSize: 0x28 }
  - { offsetInCU: 0x2C7D8, offset: 0x2C7D8, size: 0x8, addend: 0x0, symName: __ZNSt3__122__hash_node_destructorINS_9allocatorINS_11__hash_nodeINS_17__hash_value_typeINS_12basic_stringIcNS_11char_traitsIcEENS1_IcEEEENS_15__list_iteratorINS_4pairIS8_iEEPvEEEESC_EEEEEclB7v160006EPSF_, symObjAddr: 0x14EE4, symBinAddr: 0x100018DC4, symSize: 0x98 }
  - { offsetInCU: 0x2C80C, offset: 0x2C80C, size: 0x8, addend: 0x0, symName: __ZNSt3__122__compressed_pair_elemIPNS_11__hash_nodeINS_17__hash_value_typeINS_12basic_stringIcNS_11char_traitsIcEENS_9allocatorIcEEEENS_15__list_iteratorINS_4pairIS8_iEEPvEEEESC_EELi0ELb0EE5__getB7v160006Ev, symObjAddr: 0x14F7C, symBinAddr: 0x100018E5C, symSize: 0x14 }
  - { offsetInCU: 0x2C831, offset: 0x2C831, size: 0x8, addend: 0x0, symName: __ZNSt3__122__compressed_pair_elemINS_22__hash_node_destructorINS_9allocatorINS_11__hash_nodeINS_17__hash_value_typeINS_12basic_stringIcNS_11char_traitsIcEENS2_IcEEEENS_15__list_iteratorINS_4pairIS9_iEEPvEEEESD_EEEEEELi1ELb0EE5__getB7v160006Ev, symObjAddr: 0x14F90, symBinAddr: 0x100018E70, symSize: 0x14 }
  - { offsetInCU: 0x2C856, offset: 0x2C856, size: 0x8, addend: 0x0, symName: __ZNSt3__121__hash_const_iteratorIPNS_11__hash_nodeINS_17__hash_value_typeINS_12basic_stringIcNS_11char_traitsIcEENS_9allocatorIcEEEENS_15__list_iteratorINS_4pairIS8_iEEPvEEEESC_EEEC2B7v160006ERKNS_15__hash_iteratorISG_EE, symObjAddr: 0x14FA4, symBinAddr: 0x100018E84, symSize: 0x24 }
  - { offsetInCU: 0x2C88D, offset: 0x2C88D, size: 0x8, addend: 0x0, symName: __ZNSt3__110__list_impINS_4pairINS_12basic_stringIcNS_11char_traitsIcEENS_9allocatorIcEEEEiEENS5_IS8_EEE5beginB7v160006Ev, symObjAddr: 0x14FC8, symBinAddr: 0x100018EA8, symSize: 0x30 }
  - { offsetInCU: 0x2C8B2, offset: 0x2C8B2, size: 0x8, addend: 0x0, symName: __ZNSt3__116allocator_traitsINS_9allocatorINS_11__list_nodeINS_4pairINS_12basic_stringIcNS_11char_traitsIcEENS1_IcEEEEiEEPvEEEEE9constructB7v160006IS9_JS9_EvvEEvRSC_PT_DpOT0_, symObjAddr: 0x14FF8, symBinAddr: 0x100018ED8, symSize: 0x30 }
  - { offsetInCU: 0x2C907, offset: 0x2C907, size: 0x8, addend: 0x0, symName: __ZNSt3__14pairINS_12basic_stringIcNS_11char_traitsIcEENS_9allocatorIcEEEEiEC1EOS7_, symObjAddr: 0x15064, symBinAddr: 0x100018F44, symSize: 0x34 }
  - { offsetInCU: 0x2C93A, offset: 0x2C93A, size: 0x8, addend: 0x0, symName: __ZNSt3__14pairINS_12basic_stringIcNS_11char_traitsIcEENS_9allocatorIcEEEEiEC2EOS7_, symObjAddr: 0x15098, symBinAddr: 0x100018F78, symSize: 0x40 }
  - { offsetInCU: 0x2C96D, offset: 0x2C96D, size: 0x8, addend: 0x0, symName: __ZNSt3__14pairINS_12basic_stringIcNS_11char_traitsIcEENS_9allocatorIcEEEEiEC2B7v160006ILb1ELPv0EEERKS6_RKi, symObjAddr: 0x150D8, symBinAddr: 0x100018FB8, symSize: 0x44 }
  - { offsetInCU: 0x2C9C2, offset: 0x2C9C2, size: 0x8, addend: 0x0, symName: __ZNSt3__112__hash_tableINS_17__hash_value_typeINS_12basic_stringIcNS_11char_traitsIcEENS_9allocatorIcEEEENS_15__list_iteratorINS_4pairIS7_iEEPvEEEENS_22__unordered_map_hasherIS7_SD_NS_4hashIS7_EENS_8equal_toIS7_EELb1EEENS_21__unordered_map_equalIS7_SD_SI_SG_Lb1EEENS5_ISD_EEE25__emplace_unique_key_argsIS7_JRKNS_21piecewise_construct_tENS_5tupleIJRKS7_EEENSS_IJEEEEEENS9_INS_15__hash_iteratorIPNS_11__hash_nodeISD_SB_EEEEbEERKT_DpOT0_, symObjAddr: 0x1511C, symBinAddr: 0x100018FFC, symSize: 0x498 }
  - { offsetInCU: 0x2CACC, offset: 0x2CACC, size: 0x8, addend: 0x0, symName: __ZNSt3__112__hash_tableINS_17__hash_value_typeINS_12basic_stringIcNS_11char_traitsIcEENS_9allocatorIcEEEENS_15__list_iteratorINS_4pairIS7_iEEPvEEEENS_22__unordered_map_hasherIS7_SD_NS_4hashIS7_EENS_8equal_toIS7_EELb1EEENS_21__unordered_map_equalIS7_SD_SI_SG_Lb1EEENS5_ISD_EEE21__construct_node_hashIRKNS_21piecewise_construct_tEJNS_5tupleIJRKS7_EEENSS_IJEEEEEENS_10unique_ptrINS_11__hash_nodeISD_SB_EENS_22__hash_node_destructorINS5_ISZ_EEEEEEmOT_DpOT0_, symObjAddr: 0x155B4, symBinAddr: 0x100019494, symSize: 0x150 }
  - { offsetInCU: 0x2CB66, offset: 0x2CB66, size: 0x8, addend: 0x0, symName: __ZNSt3__112__hash_tableINS_17__hash_value_typeINS_12basic_stringIcNS_11char_traitsIcEENS_9allocatorIcEEEENS_15__list_iteratorINS_4pairIS7_iEEPvEEEENS_22__unordered_map_hasherIS7_SD_NS_4hashIS7_EENS_8equal_toIS7_EELb1EEENS_21__unordered_map_equalIS7_SD_SI_SG_Lb1EEENS5_ISD_EEE15max_load_factorB7v160006Ev, symObjAddr: 0x15704, symBinAddr: 0x1000195E4, symSize: 0x28 }
  - { offsetInCU: 0x2CB8A, offset: 0x2CB8A, size: 0x8, addend: 0x0, symName: __ZNSt3__112__hash_tableINS_17__hash_value_typeINS_12basic_stringIcNS_11char_traitsIcEENS_9allocatorIcEEEENS_15__list_iteratorINS_4pairIS7_iEEPvEEEENS_22__unordered_map_hasherIS7_SD_NS_4hashIS7_EENS_8equal_toIS7_EELb1EEENS_21__unordered_map_equalIS7_SD_SI_SG_Lb1EEENS5_ISD_EEE15__rehash_uniqueB7v160006Em, symObjAddr: 0x1572C, symBinAddr: 0x10001960C, symSize: 0x2C }
  - { offsetInCU: 0x2CBBD, offset: 0x2CBBD, size: 0x8, addend: 0x0, symName: __ZNKSt3__110unique_ptrINS_11__hash_nodeINS_17__hash_value_typeINS_12basic_stringIcNS_11char_traitsIcEENS_9allocatorIcEEEENS_15__list_iteratorINS_4pairIS8_iEEPvEEEESC_EENS_22__hash_node_destructorINS6_ISF_EEEEEptB7v160006Ev, symObjAddr: 0x15758, symBinAddr: 0x100019638, symSize: 0x28 }
  - { offsetInCU: 0x2CBE1, offset: 0x2CBE1, size: 0x8, addend: 0x0, symName: __ZNKSt3__110unique_ptrINS_11__hash_nodeINS_17__hash_value_typeINS_12basic_stringIcNS_11char_traitsIcEENS_9allocatorIcEEEENS_15__list_iteratorINS_4pairIS8_iEEPvEEEESC_EENS_22__hash_node_destructorINS6_ISF_EEEEE3getB7v160006Ev, symObjAddr: 0x15780, symBinAddr: 0x100019660, symSize: 0x28 }
  - { offsetInCU: 0x2CC05, offset: 0x2CC05, size: 0x8, addend: 0x0, symName: __ZNSt3__110unique_ptrINS_11__hash_nodeINS_17__hash_value_typeINS_12basic_stringIcNS_11char_traitsIcEENS_9allocatorIcEEEENS_15__list_iteratorINS_4pairIS8_iEEPvEEEESC_EENS_22__hash_node_destructorINS6_ISF_EEEEE7releaseB7v160006Ev, symObjAddr: 0x157A8, symBinAddr: 0x100019688, symSize: 0x44 }
  - { offsetInCU: 0x2CC3E, offset: 0x2CC3E, size: 0x8, addend: 0x0, symName: __ZNSt3__14pairINS_15__hash_iteratorIPNS_11__hash_nodeINS_17__hash_value_typeINS_12basic_stringIcNS_11char_traitsIcEENS_9allocatorIcEEEENS_15__list_iteratorINS0_IS9_iEEPvEEEESC_EEEEbEC1B7v160006ISH_RbLSC_0EEEOT_OT0_, symObjAddr: 0x157EC, symBinAddr: 0x1000196CC, symSize: 0x3C }
  - { offsetInCU: 0x2CC9B, offset: 0x2CC9B, size: 0x8, addend: 0x0, symName: __ZNSt3__116allocator_traitsINS_9allocatorINS_11__hash_nodeINS_17__hash_value_typeINS_12basic_stringIcNS_11char_traitsIcEENS1_IcEEEENS_15__list_iteratorINS_4pairIS8_iEEPvEEEESC_EEEEE8allocateB7v160006ERSG_m, symObjAddr: 0x15828, symBinAddr: 0x100019708, symSize: 0x2C }
  - { offsetInCU: 0x2CCCE, offset: 0x2CCCE, size: 0x8, addend: 0x0, symName: __ZNSt3__116allocator_traitsINS_9allocatorINS_11__hash_nodeINS_17__hash_value_typeINS_12basic_stringIcNS_11char_traitsIcEENS1_IcEEEENS_15__list_iteratorINS_4pairIS8_iEEPvEEEESC_EEEEE9constructB7v160006INSA_IKS8_SD_EEJRKNS_21piecewise_construct_tENS_5tupleIJRSJ_EEENSO_IJEEEEvvEEvRSG_PT_DpOT0_, symObjAddr: 0x15854, symBinAddr: 0x100019734, symSize: 0x40 }
  - { offsetInCU: 0x2CD4A, offset: 0x2CD4A, size: 0x8, addend: 0x0, symName: __ZNSt3__110unique_ptrINS_11__hash_nodeINS_17__hash_value_typeINS_12basic_stringIcNS_11char_traitsIcEENS_9allocatorIcEEEENS_15__list_iteratorINS_4pairIS8_iEEPvEEEESC_EENS_22__hash_node_destructorINS6_ISF_EEEEE11get_deleterB7v160006Ev, symObjAddr: 0x15894, symBinAddr: 0x100019774, symSize: 0x24 }
  - { offsetInCU: 0x2CD6E, offset: 0x2CD6E, size: 0x8, addend: 0x0, symName: __ZNSt3__19allocatorINS_11__hash_nodeINS_17__hash_value_typeINS_12basic_stringIcNS_11char_traitsIcEENS0_IcEEEENS_15__list_iteratorINS_4pairIS7_iEEPvEEEESB_EEE8allocateB7v160006Em, symObjAddr: 0x158B8, symBinAddr: 0x100019798, symSize: 0x5C }
  - { offsetInCU: 0x2CDAB, offset: 0x2CDAB, size: 0x8, addend: 0x0, symName: __ZNSt3__116allocator_traitsINS_9allocatorINS_11__hash_nodeINS_17__hash_value_typeINS_12basic_stringIcNS_11char_traitsIcEENS1_IcEEEENS_15__list_iteratorINS_4pairIS8_iEEPvEEEESC_EEEEE8max_sizeB7v160006ISG_vvEEmRKSG_, symObjAddr: 0x15914, symBinAddr: 0x1000197F4, symSize: 0x28 }
  - { offsetInCU: 0x2CDD7, offset: 0x2CDD7, size: 0x8, addend: 0x0, symName: __ZNSt3__14pairIKNS_12basic_stringIcNS_11char_traitsIcEENS_9allocatorIcEEEENS_15__list_iteratorINS0_IS6_iEEPvEEEC1B7v160006IJRS7_EJEEENS_21piecewise_construct_tENS_5tupleIJDpT_EEENSG_IJDpT0_EEE, symObjAddr: 0x1598C, symBinAddr: 0x10001986C, symSize: 0x3C }
  - { offsetInCU: 0x2CE3D, offset: 0x2CE3D, size: 0x8, addend: 0x0, symName: __ZNSt3__14pairIKNS_12basic_stringIcNS_11char_traitsIcEENS_9allocatorIcEEEENS_15__list_iteratorINS0_IS6_iEEPvEEEC1B7v160006IJRS7_EJEJLm0EEJEEENS_21piecewise_construct_tERNS_5tupleIJDpT_EEERNSG_IJDpT0_EEENS_15__tuple_indicesIJXspT1_EEEENSP_IJXspT2_EEEE, symObjAddr: 0x159C8, symBinAddr: 0x1000198A8, symSize: 0x3C }
  - { offsetInCU: 0x2CECC, offset: 0x2CECC, size: 0x8, addend: 0x0, symName: __ZNSt3__14pairIKNS_12basic_stringIcNS_11char_traitsIcEENS_9allocatorIcEEEENS_15__list_iteratorINS0_IS6_iEEPvEEEC2B7v160006IJRS7_EJEJLm0EEJEEENS_21piecewise_construct_tERNS_5tupleIJDpT_EEERNSG_IJDpT0_EEENS_15__tuple_indicesIJXspT1_EEEENSP_IJXspT2_EEEE, symObjAddr: 0x15A04, symBinAddr: 0x1000198E4, symSize: 0x50 }
  - { offsetInCU: 0x2CF5B, offset: 0x2CF5B, size: 0x8, addend: 0x0, symName: __ZNSt3__115__list_iteratorINS_4pairINS_12basic_stringIcNS_11char_traitsIcEENS_9allocatorIcEEEEiEEPvEC1B7v160006Ev, symObjAddr: 0x15A54, symBinAddr: 0x100019934, symSize: 0x2C }
  - { offsetInCU: 0x2CF84, offset: 0x2CF84, size: 0x8, addend: 0x0, symName: __ZNSt3__115__list_iteratorINS_4pairINS_12basic_stringIcNS_11char_traitsIcEENS_9allocatorIcEEEEiEEPvEC2B7v160006Ev, symObjAddr: 0x15A80, symBinAddr: 0x100019960, symSize: 0x38 }
  - { offsetInCU: 0x2CFAC, offset: 0x2CFAC, size: 0x8, addend: 0x0, symName: __ZNSt3__117__compressed_pairIfNS_21__unordered_map_equalINS_12basic_stringIcNS_11char_traitsIcEENS_9allocatorIcEEEENS_17__hash_value_typeIS7_NS_15__list_iteratorINS_4pairIS7_iEEPvEEEENS_8equal_toIS7_EENS_4hashIS7_EELb1EEEE5firstB7v160006Ev, symObjAddr: 0x15AC8, symBinAddr: 0x1000199A8, symSize: 0x24 }
  - { offsetInCU: 0x2CFD1, offset: 0x2CFD1, size: 0x8, addend: 0x0, symName: __ZNSt3__112__hash_tableINS_17__hash_value_typeINS_12basic_stringIcNS_11char_traitsIcEENS_9allocatorIcEEEENS_15__list_iteratorINS_4pairIS7_iEEPvEEEENS_22__unordered_map_hasherIS7_SD_NS_4hashIS7_EENS_8equal_toIS7_EELb1EEENS_21__unordered_map_equalIS7_SD_SI_SG_Lb1EEENS5_ISD_EEE8__rehashILb1EEEvm, symObjAddr: 0x15AEC, symBinAddr: 0x1000199CC, symSize: 0x1A8 }
  - { offsetInCU: 0x2D020, offset: 0x2D020, size: 0x8, addend: 0x0, symName: __ZNSt3__112__hash_tableINS_17__hash_value_typeINS_12basic_stringIcNS_11char_traitsIcEENS_9allocatorIcEEEENS_15__list_iteratorINS_4pairIS7_iEEPvEEEENS_22__unordered_map_hasherIS7_SD_NS_4hashIS7_EENS_8equal_toIS7_EELb1EEENS_21__unordered_map_equalIS7_SD_SI_SG_Lb1EEENS5_ISD_EEE11__do_rehashILb1EEEvm, symObjAddr: 0x15C94, symBinAddr: 0x100019B74, symSize: 0x290 }
  - { offsetInCU: 0x2D101, offset: 0x2D101, size: 0x8, addend: 0x0, symName: __ZNSt3__110unique_ptrIA_PNS_16__hash_node_baseIPNS_11__hash_nodeINS_17__hash_value_typeINS_12basic_stringIcNS_11char_traitsIcEENS_9allocatorIcEEEENS_15__list_iteratorINS_4pairIS9_iEEPvEEEESD_EEEENS_25__bucket_list_deallocatorINS7_ISJ_EEEEE11get_deleterB7v160006Ev, symObjAddr: 0x15F34, symBinAddr: 0x100019E14, symSize: 0x24 }
  - { offsetInCU: 0x2D125, offset: 0x2D125, size: 0x8, addend: 0x0, symName: __ZNSt3__110unique_ptrIA_PNS_16__hash_node_baseIPNS_11__hash_nodeINS_17__hash_value_typeINS_12basic_stringIcNS_11char_traitsIcEENS_9allocatorIcEEEENS_15__list_iteratorINS_4pairIS9_iEEPvEEEESD_EEEENS_25__bucket_list_deallocatorINS7_ISJ_EEEEE5resetB7v160006IPSJ_EENS_9enable_ifIXsr28_CheckArrayPointerConversionIT_EE5valueEvE4typeESS_, symObjAddr: 0x15F58, symBinAddr: 0x100019E38, symSize: 0x78 }
  - { offsetInCU: 0x2D171, offset: 0x2D171, size: 0x8, addend: 0x0, symName: __ZNSt3__116allocator_traitsINS_9allocatorIPNS_16__hash_node_baseIPNS_11__hash_nodeINS_17__hash_value_typeINS_12basic_stringIcNS_11char_traitsIcEENS1_IcEEEENS_15__list_iteratorINS_4pairIS9_iEEPvEEEESD_EEEEEEE8allocateB7v160006ERSK_m, symObjAddr: 0x15FD0, symBinAddr: 0x100019EB0, symSize: 0x2C }
  - { offsetInCU: 0x2D1A3, offset: 0x2D1A3, size: 0x8, addend: 0x0, symName: __ZNSt3__19allocatorIPNS_16__hash_node_baseIPNS_11__hash_nodeINS_17__hash_value_typeINS_12basic_stringIcNS_11char_traitsIcEENS0_IcEEEENS_15__list_iteratorINS_4pairIS8_iEEPvEEEESC_EEEEE8allocateB7v160006Em, symObjAddr: 0x15FFC, symBinAddr: 0x100019EDC, symSize: 0x58 }
  - { offsetInCU: 0x2D1E0, offset: 0x2D1E0, size: 0x8, addend: 0x0, symName: __ZNSt3__116allocator_traitsINS_9allocatorIPNS_16__hash_node_baseIPNS_11__hash_nodeINS_17__hash_value_typeINS_12basic_stringIcNS_11char_traitsIcEENS1_IcEEEENS_15__list_iteratorINS_4pairIS9_iEEPvEEEESD_EEEEEEE8max_sizeB7v160006ISK_vvEEmRKSK_, symObjAddr: 0x16054, symBinAddr: 0x100019F34, symSize: 0x28 }
  - { offsetInCU: 0x2D20B, offset: 0x2D20B, size: 0x8, addend: 0x0, symName: __ZNKSt3__117__compressed_pairIPNS_11__hash_nodeINS_17__hash_value_typeINS_12basic_stringIcNS_11char_traitsIcEENS_9allocatorIcEEEENS_15__list_iteratorINS_4pairIS8_iEEPvEEEESC_EENS_22__hash_node_destructorINS6_ISF_EEEEE5firstB7v160006Ev, symObjAddr: 0x1607C, symBinAddr: 0x100019F5C, symSize: 0x24 }
  - { offsetInCU: 0x2D230, offset: 0x2D230, size: 0x8, addend: 0x0, symName: __ZNKSt3__122__compressed_pair_elemIPNS_11__hash_nodeINS_17__hash_value_typeINS_12basic_stringIcNS_11char_traitsIcEENS_9allocatorIcEEEENS_15__list_iteratorINS_4pairIS8_iEEPvEEEESC_EELi0ELb0EE5__getB7v160006Ev, symObjAddr: 0x160A0, symBinAddr: 0x100019F80, symSize: 0x14 }
  - { offsetInCU: 0x2D255, offset: 0x2D255, size: 0x8, addend: 0x0, symName: __ZNSt3__14pairINS_15__hash_iteratorIPNS_11__hash_nodeINS_17__hash_value_typeINS_12basic_stringIcNS_11char_traitsIcEENS_9allocatorIcEEEENS_15__list_iteratorINS0_IS9_iEEPvEEEESC_EEEEbEC2B7v160006ISH_RbLSC_0EEEOT_OT0_, symObjAddr: 0x160B4, symBinAddr: 0x100019F94, symSize: 0x38 }
...
